c__builtin__
set
p0
((lp1
I398087684
aI1357911
aI7523352
aI85861402
aI181330971
aI537300529
aI58563653
aI148848199
aI773579336
aI153169998
aI150884948
aI244175447
aI326807652
aI195691612
aI167169119
aI2355491425
aI82964066
aI471550563
aI35846244
aI44492903
aI66661521
aI247797874
aI204877942
aI57183351
aI107451528
aI322172045
aI196362385
aI297503384
aI284811417
aI182925466
aI8403612
aI987181214
aI14084259
aI40654511
aI929819324
aI216106179
aI14835908
aI48421580
aI146536143
aI17050323
aI119998164
aI40733398
aI149096668
aI15463648
aI184171256
aI187604730
aI240466694
aI329699082
aI2957071
aI14689040
aI375914262
aI594197276
aI19654433
aI7379612
aI775997731
aI148752676
aI198756401
aI143130931
aI69800760
aI307897148
aI270155069
aI552951614
aI174027585
aI2781001027
aI143852870
aI50417635
aI123916637
aI68972304
aI187495266
aI290082151
aI3072785271
aI849468804
aI177965969
aI1270714262
aI173558425
aI123937349
aI750554018
aI2539802532
aI58843561
aI270949300
aI148753334
aI7348152
aI35839931
aI154657212
aI110746562
aI57399758
aI15201743
aI15153616
aI55874211
aI177342424
aI115494880
aI3729891
aI393708005
aI143175654
aI177158631
aI148984299
aI126783988
aI87452661
aI201753083
atp2
Rp3
.