c__builtin__
set
p0
((lp1
I9860102
aI149970952
aI101369004
aI46093836
aI76946476
aI67250704
aI120223249
aI14611986
aI263115805
aI2605678636
aI14265389
aI557285432
aI552951614
aI132360268
aI17106514
aI163999320
aI147610206
aI1068951084
aI471550563
aI35846244
aI502297701
aI245664785
aI9732212
aI204877942
aI15455351
aI92808825
aI152613501
aI438777477
aI75570831
aI768197780
aI32546966
aI11133592
aI987181214
aI8081062
aI37082793
aI148034732
aI244991150
aI15669427
aI57190069
aI186815164
aI748265156
aI1358475462
aI176442061
aI8472272
aI3098427092
aI14544597
aI139953366
aI182831320
aI1625307866
aI170780382
aI136608479
aI2343198944
aI2800073955
aI184171256
aI176828673
aI18362117
aI2420694793
aI896384784
aI10246422
aI24083751
aI16269613
aI7649082
aI705525051
aI1270136126
aI3781441
aI997612868
aI36392264
aI22612301
aI116625746
aI127482711
aI125686617
aI232756064
aI43588460
aI146256240
aI401508725
aI145802621
aI48747910
aI15465372
aI151298974
aI11790752
aI205088752
aI750554018
aI18046886
aI143211944
aI234995113
aI153594795
aI38078904
aI379923901
aI9656262
aI16945095
aI175914955
aI1084111308
aI122802136
aI115494880
aI152674787
aI12448992
aI137879024
aI221211128
aI20472315
aI163472892
atp2
Rp3
.