c__builtin__
set
p0
((lp1
I438777477
aI48747910
aI3781441
aI2420694793
aI46093836
aI896384784
aI14611986
aI768197780
aI32546966
aI11133592
aI15465372
aI987181214
aI18362117
aI11790752
aI750554018
aI24083751
aI234995113
aI1068951084
aI16269613
aI244991150
aI2605678636
aI57190069
aI557285432
aI705525051
aI379923901
aI1270136126
aI2343198944
aI997612868
aI115494880
aI1358475462
aI16945095
aI36392264
aI232756064
aI1084111308
aI8472272
aI17106514
aI471550563
aI3098427092
aI127482711
aI163999320
aI1625307866
aI12448992
aI67250704
aI2800073955
aI35846244
aI502297701
aI552951614
aI204877942
aI15455351
aI92808825
atp2
Rp3
.