c__builtin__
set
p0
((lp1
I213796867
aI1688889350
aI16492551
aI149970952
aI94488593
aI149363756
aI161363988
aI225774453
aI17653784
aI174855172
aI188301338
aI216080411
aI213783752
aI2420679128
aI2714638368
aI21356583
aI142532652
aI143780439
aI198756401
aI882407474
aI159916083
aI267509812
aI222305289
aI557285432
aI298184761
aI184987707
aI562899004
aI3090198593
aI401684150
aI6899782
aI132360268
aI151058509
aI153169998
aI151119951
aI171944016
aI282681426
aI68746721
aI556384343
aI2851912725
aI3146465375
aI32372834
aI78438499
aI35846244
aI44492903
aI929819324
aI305764459
aI222212204
aI247797874
aI82147443
aI9732212
aI204877942
aI183066875
aI1379985428
aI83470015
aI708950143
aI7102592
aI165605512
aI398850873
aI15450270
aI555274383
aI196362385
aI6793362
aI32546966
aI136631321
aI393285785
aI182925466
aI18679965
aI987181214
aI79554720
aI884424865
aI14084259
aI53108902
aI2916009329
aI348616874
aI198680263
aI190423213
aI31457455
aI15669427
aI163088565
aI1446488246
aI227006647
aI210935992
aI202926265
aI365054138
aI1681150142
aI49871039
aI187414722
aI203741899
aI885618884
aI4245701
aI1358475462
aI533438665
aI43186378
aI306245337
aI378630354
aI125473145
aI182831320
aI1683601626
aI2343198944
aI58843561
aI53309554
aI2423259175
aI34896109
aI186560753
aI333127922
aI150352115
aI7254262
aI98357499
aI221097127
aI16067035
aI87482623
aI176828673
aI148201730
aI164620547
aI156500230
aI17078536
aI2605678636
aI13787402
aI103629069
aI365777167
aI14344469
aI10246422
aI281190679
aI1625307866
aI1222461727
aI148752676
aI286361896
aI16269613
aI1491859758
aI212361520
aI143130931
aI14960350
aI225063222
aI88273207
aI208187704
aI43821108
aI307345723
aI119869758
aI770411084
aI3393049313
aI7739722
aI22612301
aI161308045
aI2353731920
aI175819089
aI116625746
aI369120654
aI700918104
aI1652964068
aI2835746784
aI350906719
aI133722469
aI146256240
aI186964337
aI182991219
aI401508725
aI15911288
aI17049977
aI203185215
aI167079658
aI166177152
aI215266369
aI188617097
aI172503435
aI16134540
aI19287106
aI1883840910
aI2731792788
aI3352981
aI2365968793
aI87462296
aI349106585
aI187001245
aI36727199
aI11790752
aI968322271
aI67283363
aI58001833
aI279603626
aI150049863
aI15004077
aI185168303
aI1671537072
aI114969013
aI52903797
aI38078904
aI125428158
aI168827327
aI1201095072
aI314013089
aI160938441
aI460830455
aI1084111308
aI190751182
aI15153616
aI2432506616
aI222524946
aI142526936
aI188572121
aI193077722
aI186851803
aI16843229
aI1483213278
aI1713039841
aI206838242
aI152674787
aI300952036
aI195190365
aI357597780
aI144906739
aI1345792500
aI2953955753
aI159851000
aI201753083
aI51823376
aI2919139840
aI201529857
aI243827202
aI503777798
aI35908103
aI152754698
aI175188492
aI16382477
aI294124046
aI67250704
aI149258770
aI611131923
aI157850132
aI150686809
aI78969369
aI150067746
aI174365787
aI15917607
aI162212392
aI77009449
aI297503384
aI14660142
aI17992797
aI190503473
aI157798964
aI2917134089
aI196332088
aI186114618
aI71189051
aI29375037
aI209711679
aI413155904
aI104854083
aI548840007
aI12876
aI6859342
aI81973839
aI7598672
aI137810514
aI29661283
aI197603924
aI244175447
aI326807652
aI2957071
aI147610206
aI502297701
aI68972304
aI6859362
aI471550563
aI258914917
aI202996328
aI760428
aI281604717
aI1551467965
aI719266418
aI152613501
aI55652991
aI298899556
aI230527618
aI166596520
aI3119161991
aI2910618251
aI2410922580
aI1897796240
aI14707350
aI11133592
aI345391770
aI8403612
aI714680989
aI2315970043
aI2409775776
aI394308257
aI55874211
aI14277284
aI2804247205
aI186821287
aI135006085
aI50535081
aI9687722
aI37030571
aI2165459629
aI182457006
aI738229021
aI164774579
aI417016503
aI186815164
aI133505726
aI68727490
aI208734916
aI329722566
aI25696968
aI72030668
aI15455351
aI48421580
aI176442061
aI70724306
aI148034732
aI57399758
aI40733398
aI98634457
aI431284954
aI136608479
aI218659553
aI50737890
aI61752036
aI236571368
aI48827115
aI2201400044
aI2745307886
aI2180922097
aI53062387
aI184171256
aI224030848
aI161824555
aI17337093
aI242311942
aI27515656
aI3148555019
aI14689040
aI204149208
aI151055124
aI2282387246
aI17132311
aI420057347
aI158155548
aI20201997
aI266914593
aI140272418
aI243683803
aI14760741
aI43780902
aI14066472
aI163492649
aI146141995
aI228731695
aI1318638386
aI803435317
aI602975033
aI307897148
aI40654511
aI151229246
aI635634485
aI355019584
aI3781441
aI2327909190
aI347420129
aI137874572
aI266337098
aI193753932
aI173038413
aI3360552077
aI53392867
aI113810024
aI127482711
aI327934808
aI125686617
aI8161082
aI232756064
aI41603937
aI262857572
aI135549798
aI408520849
aI366224233
aI43588460
aI193063058
aI1646510958
aI507419507
aI2752439102
aI44002166
aI3072785271
aI186119999
aI147923838
aI165141379
aI26903428
aI1498935446
aI150758281
aI150684554
aI223570827
aI1872585612
aI1537494776
aI15457168
aI177965969
aI155425682
aI19674006
aI114559896
aI77187995
aI15465372
aI151298974
aI115131295
aI195881889
aI750554018
aI863141953
aI58071653
aI35847082
aI153594795
aI593789869
aI167253149
aI178754481
aI304461299
aI1155324062
aI1857735248
aI2575049887
aI149633982
aI167886654
aI110746562
aI109040582
aI430072775
aI352210423
aI221211128
aI313672663
aI2884520921
aI37536731
aI144929758
aI573125599
aI14625760
aI20472315
aI188148714
aI1462946983
aI181408748
aI36049904
aI2784123889
aI25136114
aI64115699
aI87452661
aI88540151
aI108471290
aI48684543
aI390284285
aI866886654
aI48733185
aI135042050
aI97777835
aI919682052
aI9860102
aI153486508
aI127669079
aI383257612
aI2722530318
aI245664785
aI1728963602
aI210660373
aI85851159
aI543548441
aI85861402
aI44698651
aI9462812
aI263115805
aI107242526
aI172200993
aI1961403428
aI2345180198
aI169290793
aI76946476
aI14265389
aI170467507
aI317828152
aI45712441
aI146054202
aI94379068
aI989912586
aI19199039
aI867128160
aI276067606
aI146897987
aI2814476470
aI178902087
aI68668492
aI198622285
aI2432177677
aI211829842
aI277494869
aI2431816790
aI13456472
aI200611750
aI217261583
aI803795130
aI176807006
aI1511306336
aI2440446480
aI16311394
aI212337764
aI161082469
aI2956543078
aI142730343
aI3290428521
aI897463404
aI186459666
aI267283568
aI15352946
aI611839091
aI162255990
aI57183351
aI424019065
aI90436767
aI11263102
aI297993343
aI148970624
aI54635717
aI149279875
aI161422471
aI107451528
aI62893193
aI760249484
aI322172045
aI81704079
aI182613139
aI768197780
aI108932245
aI207111319
aI15174809
aI174832795
aI7832732
aI1483041949
aI157764767
aI194153632
aI537570468
aI164791463
aI167433387
aI101369004
aI244991150
aI34225693
aI144307376
aI512300209
aI353145715
aI16311478
aI1244709066
aI16311487
aI1353239197
aI150803650
aI1373502660
aI227867845
aI158536904
aI52199287
aI255524045
aI1584471248
aI260975579
aI1339048111
aI533382355
aI139953366
aI368950488
aI81188058
aI19131613
aI301168376
aI15463648
aI2393691362
aI2800073955
aI139518616
aI147379436
aI151045358
aI171474159
aI145685744
aI629712113
aI153842931
aI11762932
aI52229365
aI205034746
aI946875643
aI82779389
aI20520190
aI1396745472
aI147635459
aI50752773
aI2902218284
aI736919767
aI522878220
aI50748686
aI46791955
aI153507094
aI7142682
aI606491934
aI51871007
aI160609570
aI119424293
aI15473958
aI24083751
aI405786503
aI1559375148
aI361907503
aI197446305
aI705525051
aI270155069
aI1270136126
aI12448992
aI507712834
aI2781001027
aI997612868
aI143852870
aI52735304
aI138509644
aI168932686
aI173677903
aI1198646610
aI1897237843
aI15494489
aI541604798
aI179252573
aI58304581
aI2576979296
aI43262864
aI15461733
aI290082151
aI707263848
aI270480745
aI325991792
aI145894769
aI2915200372
aI14997220
aI296926582
aI602393978
aI145802621
aI174826880
aI22674817
aI51291522
aI48747910
aI276350346
aI154647949
aI130381198
aI162422162
aI154989972
aI532546965
aI92284311
aI191225241
aI180422043
aI237254045
aI119987616
aI106814704
aI157044130
aI601490852
aI143211944
aI234995113
aI103677354
aI1658672557
aI296234416
aI321164722
aI200506804
aI2710672286
aI210595254
aI2881252791
aI314687897
aI262368699
aI379923901
aI133115327
aI2179429297
aI158830838
aI68083142
aI767010248
aI205284809
aI321783243
aI2608505316
aI200773070
aI15201743
aI382355033
aI291155410
aI17096149
aI1357407704
aI171650522
aI335901264
aI627904763
aI327935460
aI18675173
aI7689702
aI195841514
aI57841132
aI327523821
aI137879024
aI62584305
aI2158772880
aI245773814
aI116862455
aI150884948
aI262127099
aI163472892
aI33836629
aI110796288
aI15408641
aI42175403
aI140935414
aI72457736
aI150455818
aI130979339
aI46093836
aI61283853
aI17769998
aI17976847
aI120223249
aI14611986
aI220380691
aI17050323
aI134129241
aI199476761
aI292832796
aI331673117
aI125464094
aI124296453
aI323530272
aI170017030
aI544409127
aI1068951084
aI2655791
aI59633203
aI43603511
aI48463418
aI1947224671
aI50103873
aI523304516
aI198293062
aI155407945
aI609343415
aI820239948
aI17106514
aI148210958
aI163999320
aI204748377
aI192384603
aI2129501
aI197637727
aI2726973024
aI185783907
aI23965285
aI260832874
aI144954987
aI393033324
aI622519917
aI2167054952
aI96206450
aI1249479614
aI138814032
aI92808825
aI41811580
aI2490857087
aI467672521
aI329756292
aI438777477
aI50521735
aI16932489
aI7650242
aI75570831
aI1864359570
aI338399568
aI164732566
aI14407320
aI366812828
aI142726426
aI952333987
aI309182117
aI8081062
aI37082793
aI211251295
aI2817731970
aI150421167
aI57190069
aI701486774
aI6270652
aI20608701
aI54126271
aI748265156
aI38690503
aI104965837
aI8472272
aI3098427092
aI14544597
aI284499672
aI41354969
aI7141082
aI179361501
aI170780382
aI197684961
aI164335332
aI165730021
aI234499025
aI11745002
aI770705132
aI206780149
aI296711927
aI175376120
aI187604730
aI234032767
aI158539518
aI291966720
aI1206015745
aI18362117
aI97341190
aI159280904
aI2420694793
aI329699082
aI2218601431
aI118440578
aI134910253
aI896384784
aI375914262
aI185012962
aI12216282
aI19654433
aI14853083
aI147793700
aI180387621
aI233598230
aI168785703
aI245591848
aI195850027
aI575491885
aI73996078
aI145776471
aI146165555
aI7649082
aI552951614
aI55468409
aI3151337280
aI2327650272
aI173301570
aI403703619
aI1435461
aI162885237
aI148832075
aI447461196
aI83488590
aI515692050
aI169326420
aI833699671
aI219555677
aI19696529
aI964024976
aI182993211
aI811704164
aI52965221
aI255655782
aI188962665
aI82949999
aI591304561
aI155359090
aI146904949
aI1493231479
aI110569336
aI172795770
aI186060667
aI1312333694
aI201244543
aI234104708
aI123865750
aI149171521
aI618437272
aI121423171
aI1270714262
aI1902550340
aI67053468
aI195704733
aI16531358
aI882696097
aI2539802532
aI64262053
aI18046886
aI14313383
aI48662440
aI150372271
aI36392264
aI2712448951
aI79190672
aI1895737279
aI9656262
aI16945095
aI30939264
aI175914955
aI2857523157
aI370409954
aI214122455
aI122802136
aI2776959652
aI6205402
aI92794844
aI115494880
aI2496727376
aI50417635
aI143175654
aI151177584
aI17971178
aI59510763
aI16404460
aI205088752
aI313024501
aI261858221
aI144418473
aI42616335
atp2
Rp3
.