(lp0
(I329879195
I7435
tp1
a(I191381510
I8158
tp2
a(I14156624
I1500
tp3
a(I2300068776
I247
tp4
a(I1318985240
I2058
tp5
a(I1084111308
I1126
tp6
a(I534563976
I41519
tp7
a(I15465372
I325
tp8
a(I22661018
I188
tp9
a(I1692312728
I725
tp10
a(I326295039
I175
tp11
a(I1043573154
I156
tp12
a(I221812067
I320
tp13
a(I1259043697
I12205
tp14
a(I573312269
I55
tp15
a(I2409675732
I886
tp16
a(I393862677
I267
tp17
a(I2846588599
I147
tp18
a(I82020712
I297
tp19
a(I1542934220
I81
tp20
a(I119515919
I2032
tp21
a(I32315020
I3871
tp22
a(I256067060
I80
tp23
a(I333127922
I246
tp24
a(I2719680363
I86
tp25
a(I1230606690
I92
tp26
a(I3201165173
I28
tp27
a(I8787352
I302
tp28
a(I2986745793
I54
tp29
a(I1367336064
I232
tp30
a(I148753334
I79145
tp31
a(I120372396
I4825
tp32
a(I164383513
I172
tp33
a(I2432506616
I21154
tp34
a(I14803917
I356147
tp35
a(I58358010
I146
tp36
a(I2699084844
I11079
tp37
a(I1280737226
I208238
tp38
a(I165896168
I43009
tp39
a(I35956339
I2414
tp40
a(I135988620
I1948
tp41
a(I378273223
I12042
tp42
a(I204748377
I184
tp43
a(I68833161
I10987
tp44
a(I1637560098
I184
tp45
a(I268536077
I27
tp46
a(I3261599819
I26
tp47
a(I13058772
I1075305
tp48
a(I1857421
I137056
tp49
a(I23789698
I82839
tp50
a(I15962027
I5713
tp51
a(I92808825
I135
tp52
a(I273923851
I2843
tp53
a(I370409954
I3995
tp54
a(I471550563
I5961
tp55
a(I2153743237
I1550
tp56
a(I159620450
I24518
tp57
a(I3302332749
I7
tp58
a(I2846914078
I1257
tp59
a(I894057794
I27055
tp60
a(I514504905
I1619
tp61
a(I3201639688
I93
tp62
a(I98634457
I115
tp63
a(I572225652
I1697538
tp64
a(I2603721217
I17
tp65
a(I45712441
I320
tp66
a(I2784123889
I193
tp67
a(I12844812
I1995
tp68
a(I1096083931
I2108
tp69
a(I224631899
I24372
tp70
a(I53560219
I39865
tp71
a(I22839233
I9282
tp72
a(I1428575976
I7085
tp73
a(I125695429
I5971
tp74
a(I174504385
I1459
tp75
a(I95526575
I244
tp76
a(I176414763
I92177
tp77
a(I285646074
I203
tp78
a(I1063964647
I125
tp79
a(I255798341
I770
tp80
a(I324643835
I817
tp81
a(I3254428625
I40
tp82
a(I14625760
I156
tp83
a(I232898462
I474
tp84
a(I170899630
I514
tp85
a(I3092853082
I1080
tp86
a(I272618142
I151
tp87
a(I184125882
I61
tp88
a(I57399758
I1996
tp89
a(I20538129
I102
tp90
a(I102700680
I375906
tp91
a(I76424995
I12481
tp92
a(I2998892494
I567
tp93
a(I1345792500
I57
tp94
a(I539927419
I15972
tp95
a(I41727763
I701
tp96
a(I432708845
I2408
tp97
a(I1061545039
I314
tp98
a(I3199477337
I172
tp99
a(I2814914354
I124163
tp100
a(I16152935
I1213
tp101
a(I3185269633
I61
tp102
a(I1573749276
I128
tp103
a(I3185323309
I8
tp104
a(I2188957052
I324
tp105
a(I396304046
I101
tp106
a(I3110613777
I106
tp107
a(I1565809370
I238
tp108
a(I164779865
I291
tp109
a(I31432598
I504
tp110
a(I3222026734
I1
tp111
a(I44972628
I1596
tp112
a(I32143530
I339
tp113
a(I39248035
I51488
tp114
a(I1437251851
I70
tp115
a(I62984618
I3881
tp116
a(I1121028973
I4367
tp117
a(I154915461
I2607
tp118
a(I21320906
I3341
tp119
a(I3151337280
I210
tp120
a(I187495266
I8370
tp121
a(I40870321
I5888
tp122
a(I186114618
I1068
tp123
a(I53121043
I755
tp124
a(I2444425231
I218
tp125
a(I2575792296
I41
tp126
a(I425028708
I4697
tp127
a(I3092836012
I42
tp128
a(I3041731402
I16
tp129
a(I173594105
I172
tp130
a(I335053567
I6
tp131
a(I17559473
I291
tp132
a(I3063970413
I23
tp133
a(I277836511
I11
tp134
a(I257974528
I1274
tp135
a(I513374995
I62
tp136
a(I233591941
I91
tp137
a(I2176073911
I50
tp138
a(I152379181
I303
tp139
a(I569459826
I1319
tp140
a(I389523015
I33
tp141
a(I817969
I2792
tp142
a(I64115699
I211
tp143
a(I2422686804
I476
tp144
a(I2520999920
I12041
tp145
a(I202886242
I72610
tp146
a(I382426595
I2228
tp147
a(I1380537439
I6
tp148
a(I404994634
I136
tp149
a(I41609220
I84
tp150
a(I169113882
I153
tp151
a(I3085580345
I8
tp152
a(I20479813
I1864523
tp153
a(I3131430028
I2169
tp154
a(I41116657
I79
tp155
a(I189376144
I286639
tp156
a(I3222041
I949
tp157
a(I533438665
I318
tp158
a(I2508427550
I1995
tp159
a(I15275677
I21878
tp160
a(I156290470
I12357
tp161
a(I205203605
I4779
tp162
a(I64498225
I15800
tp163
a(I58060019
I22957
tp164
a(I2574195955
I55
tp165
a(I2593226010
I1870
tp166
a(I1063680818
I78
tp167
a(I629462780
I41
tp168
a(I1972594249
I632
tp169
a(I165021063
I20598
tp170
a(I1856031655
I70
tp171
a(I3100175748
I14
tp172
a(I115991859
I8499
tp173
a(I177158631
I9329
tp174
a(I20514295
I380
tp175
a(I2327650272
I6007
tp176
a(I3073333384
I210
tp177
a(I213239029
I1080
tp178
a(I860076704
I5684
tp179
a(I209683714
I5561
tp180
a(I129012362
I13270
tp181
a(I3059872990
I3334
tp182
a(I250397632
I2151
tp183
a(I261665936
I3365
tp184
a(I14146389
I30083
tp185
a(I3092717597
I10
tp186
a(I107032314
I10082
tp187
a(I11595422
I12139
tp188
a(I2660261161
I1296
tp189
a(I192630415
I12708
tp190
a(I130983633
I68716
tp191
a(I49413866
I67695
tp192
a(I194831565
I535
tp193
a(I14075441
I7499
tp194
a(I2207892020
I3673
tp195
a(I14839109
I28417
tp196
a(I15748351
I9862
tp197
a(I216106179
I65054
tp198
a(I1566929005
I2196
tp199
a(I2561887170
I1819
tp200
a(I1270199868
I5835
tp201
a(I2518570778
I1707
tp202
a(I2851912725
I4459
tp203
a(I457886651
I11973
tp204
a(I284467345
I3073
tp205
a(I284739139
I3671
tp206
a(I296844612
I661
tp207
a(I447840446
I2302
tp208
a(I574827627
I2703
tp209
a(I1610975994
I2581
tp210
a(I390304765
I136
tp211
a(I2446931507
I588
tp212
a(I136651937
I108
tp213
a(I3080925153
I14
tp214
a(I1683601626
I1013
tp215
a(I1897796240
I112
tp216
a(I16589206
I2686656
tp217
a(I181199293
I166305
tp218
a(I191225303
I36120
tp219
a(I6477392
I1838
tp220
a(I30838568
I2238
tp221
a(I2923152358
I268
tp222
a(I1517396815
I2874
tp223
a(I737360503
I7841
tp224
a(I23231877
I882
tp225
a(I196605087
I1243
tp226
a(I2542798706
I28
tp227
a(I629845265
I64
tp228
a(I83529226
I193
tp229
a(I43499515
I3067
tp230
a(I297503384
I204
tp231
a(I3072785271
I349
tp232
a(I2516650610
I8570
tp233
a(I2953955753
I90090
tp234
a(I158000198
I8329
tp235
a(I1128961014
I566
tp236
a(I2355227816
I270
tp237
a(I2218601431
I503
tp238
a(I613492537
I1591
tp239
a(I2685242227
I210
tp240
a(I2188250509
I9023
tp241
a(I37671354
I10995
tp242
a(I708950143
I156
tp243
a(I2616010495
I2703
tp244
a(I2945940359
I14819
tp245
a(I2171184272
I90
tp246
a(I493498548
I2021
tp247
a(I3045030161
I172
tp248
a(I17455292
I54706
tp249
a(I267283568
I90411
tp250
a(I1888208708
I7799
tp251
a(I6213582
I18134
tp252
a(I157498111
I206
tp253
a(I37889873
I57088
tp254
a(I122345375
I4968
tp255
a(I1581910988
I2395
tp256
a(I392806960
I49
tp257
a(I17972404
I589
tp258
a(I157720431
I7830
tp259
a(I273935884
I25157
tp260
a(I82358386
I231
tp261
a(I634406525
I8613
tp262
a(I2983947623
I600
tp263
a(I335462063
I107573
tp264
a(I124530355
I58022
tp265
a(I345531373
I246
tp266
a(I126370460
I3723
tp267
a(I281968146
I246
tp268
a(I242013006
I568
tp269
a(I411680981
I461
tp270
a(I1270951124
I947
tp271
a(I274066027
I439
tp272
a(I144801356
I198258
tp273
a(I69800760
I60149
tp274
a(I42182388
I585
tp275
a(I431629744
I121
tp276
a(I46904029
I1382
tp277
a(I481307750
I12520
tp278
a(I2218413296
I12560
tp279
a(I147379436
I37714
tp280
a(I10320692
I2534
tp281
a(I55654022
I892
tp282
a(I302748442
I2377
tp283
a(I108930673
I3
tp284
a(I399265992
I6931
tp285
a(I481094303
I66
tp286
a(I22478721
I4828
tp287
a(I478597619
I9560
tp288
a(I18875406
I2047
tp289
a(I177336942
I2993
tp290
a(I363389963
I1654
tp291
a(I142055804
I1135
tp292
a(I713263
I43506
tp293
a(I2288138575
I725180
tp294
a(I158342368
I1235158
tp295
a(I2384043481
I3281
tp296
a(I2515729038
I4534
tp297
a(I150903507
I137399
tp298
a(I126783988
I15901
tp299
a(I2919294036
I5612
tp300
a(I1460474245
I3069
tp301
a(I173834138
I89
tp302
a(I151317587
I6396
tp303
a(I23293367
I8555
tp304
a(I164559805
I67313
tp305
a(I139187533
I471
tp306
a(I537570468
I1661
tp307
a(I38227761
I5813
tp308
a(I102728754
I542
tp309
a(I531534423
I333
tp310
a(I335989008
I9352
tp311
a(I1285906740
I1481
tp312
a(I33522957
I54217
tp313
a(I82901380
I26262
tp314
a(I2901959779
I89
tp315
a(I2188520503
I2240
tp316
a(I472220354
I4464
tp317
a(I28646364
I78738
tp318
a(I24229787
I100682
tp319
a(I45577446
I365005
tp320
a(I15942016
I74911
tp321
a(I20582958
I337877
tp322
a(I17990173
I63248
tp323
a(I145692441
I35960
tp324
a(I65065882
I5806
tp325
a(I116469425
I116179
tp326
a(I134545441
I20133
tp327
a(I13365372
I1188
tp328
a(I140435591
I16922
tp329
a(I1424428034
I531
tp330
a(I250797380
I1058
tp331
a(I598671995
I1122
tp332
a(I476700973
I12364
tp333
a(I298899556
I4046
tp334
a(I521431680
I5440
tp335
a(I137780739
I2260
tp336
a(I79615410
I227
tp337
a(I458647237
I16386
tp338
a(I507415544
I17685
tp339
a(I146897987
I614
tp340
a(I365145609
I5087
tp341
a(I585280315
I279
tp342
a(I13145012
I24365
tp343
a(I104121376
I4685
tp344
a(I84512601
I16465
tp345
a(I235821180
I3293
tp346
a(I325991792
I1449
tp347
a(I2197265034
I928
tp348
a(I70669207
I319
tp349
a(I14792516
I64426
tp350
a(I45496942
I79552
tp351
a(I138588703
I4719
tp352
a(I302936219
I686
tp353
a(I1381998943
I1617
tp354
a(I618501359
I645
tp355
a(I1484803854
I16
tp356
a(I17066060
I628
tp357
a(I745094454
I528
tp358
a(I54680395
I71712
tp359
a(I14109167
I49131
tp360
a(I2585578386
I10151
tp361
a(I3729891
I5716
tp362
a(I2897988570
I1983
tp363
a(I582071310
I446
tp364
a(I10187132
I1024
tp365
a(I24652487
I487
tp366
a(I1468534021
I1252
tp367
a(I8403612
I2909
tp368
a(I1270714262
I5471
tp369
a(I58563653
I151
tp370
a(I10003022
I415
tp371
a(I2848781944
I491
tp372
a(I233174977
I286
tp373
a(I43593
I31655
tp374
a(I137712607
I20831
tp375
a(I349963
I6299
tp376
a(I17242168
I12478
tp377
a(I5345032
I42778
tp378
a(I211093750
I45975
tp379
a(I2355115140
I927
tp380
a(I158126253
I11072
tp381
a(I2294593093
I4487
tp382
a(I2293222123
I8737
tp383
a(I765548
I61895
tp384
a(I14578294
I8316
tp385
a(I525886609
I48
tp386
a(I562878906
I128
tp387
a(I2355491425
I355
tp388
a(I1424051310
I8
tp389
a(I92355605
I1515
tp390
a(I1895737279
I637
tp391
a(I131287365
I196
tp392
a(I552951614
I1893
tp393
a.