(lp0
(lp1
I2350904161
aI15319524
aI2713589684
aI17375116
aI284718050
aI235261861
aI16373878
aI14519296
aI16134137
aI2230395241
aI206458131
aI28442880
aI1132876218
aI14792516
aI25070364
aI14591071
aI501968170
aI476700973
aI988
aI20964111
aI33696409
aI20167623
aI393033324
aI580240697
aI291222300
aI1137408992
aI405033226
aI14109167
aI419639256
aI1227698863
aI2343198944
aI22022138
aI17449590
aI49383389
aI14284157
aI80422885
aI92746008
aI798227418
aI67653490
aI82474825
aI2821347210
aI3098427092
aI335564286
aI186718830
aI18677659
aI471550563
aI53058714
aI972467905
aI3422200198
aI68119671
aI216710864
aI14759482
aI21473325
aI186662038
aI803694
aI896384784
aI334984155
aI11436352
aI339550132
aI705323538
aI2615770806
aI17281021
aI19238948
aI14699038
aI1167122150
aI7202792
aI2485229282
aI23701093
aI17971178
aI26288495
aI14833643
aI48783
aI14225998
aI31099876
aI609570013
aI78796214
aI2191310089
aI123207494
aI364233030
aI820220803
aI18489269
aI78629008
aI3271987302
aI888903679
aI16882567
aI104533711
aI70377736
aI49413866
aI18104734
aI14737692
aI243046720
aI184241690
aI29891068
aI7381872
aI2790695709
aI42715919
aI71309593
aI1528940509
aI61357947
aI190363590
aI63545584
aI169326420
aI3167735132
aI2252421404
aI121880027
aI2464050332
aI18089442
aI348115541
aI46093836
aI499339900
aI12333392
aI232756064
aI997612868
aI48823
aI167771451
aI36828624
aI15455351
aI44132813
aI2173431552
aI14012982
aI54587658
aI20927065
aI2261853764
aI1377373945
aI18060279
aI115683727
aI16743670
aI1861831111
aI205809769
aI3018841323
aI3045030161
aI1711047840
aI315326304
aI1447135560
aI113720154
aI37261890
aI762887
aI2291644742
aI17954385
aI119609619
aI1037776201
aI21561362
aI1358475462
aI55460891
aI27481773
aI7636532
aI1038630643
aI179123685
aI796971
aI62951951
aI14982388
aI2220121196
aI27673093
aI230032663
aI881530736
aI481867656
aI59973104
aI1068951084
aI387441165
aI1006391
aI1565839604
aI461145277
aI408501650
aI5453342
aI5812922
aI45396158
aI2674004713
aI47996375
aI14458327
aI22873270
aI18557975
aI1118213371
aI15806599
aI195287103
aI232242719
aI181214988
aI3094419055
aI621621636
aI19016936
aI16899399
aI48036610
aI39673716
aI98445488
aI2882893927
aI370491825
aI104241306
aI27048570
aI2459973295
aI25492486
aI17672969
aI108607900
aI145877180
aI9343172
aI1430212274
aI19091929
aI2986389487
aI537010391
aI274022678
aI270535653
aI126638564
aI36693977
aI14614643
aI535346467
aI72246361
aI292233068
aI38717115
aI98330606
aI62875937
aI862634508
aI20322875
aI613281860
aI26980868
aI260828202
aI2682780438
aI358505221
aI359128088
aI137492420
aI564247895
aI465978475
aI2340587567
aI255051048
aI1207137014
aI35188021
aI121423171
aI15330301
aI1261001742
aI41286065
aI201805698
aI8790042
aI14356553
aI39048008
aI4167551
aI38407927
aI18002445
aI449137603
aI2597261940
aI2532220603
aI446455772
aI251757939
aI2319417366
aI632509970
aI316651357
aI1235931
aI18638210
aI10756512
aI85934576
aI82980542
aI99396989
aI15008596
aI245375434
aI22042824
aI1433864449
aI600375587
aI64285032
aI414871520
aI716213
aI764695566
aI293912768
aI1925900647
aI747452694
aI2883425457
aI17922397
aI177411555
aI22970224
aI3131058580
aI38637367
aI168525808
aI20803047
aI316568450
aI162310683
aI44374064
aI36363157
aI565907195
aI17972404
aI885603211
aI8749512
aI557285432
aI59169615
aI50060349
aI1121028973
aI30028674
aI8980232
aI969542076
aI38879532
aI24394261
aI539543397
aI1618591
aI15465372
aI2318606822
aI1311288720
aI39687164
aI10915042
aI16186995
aI29045729
aI16592167
aI284739139
aI5717402
aI819233706
aI46045072
aI981913968
aI132703600
aI14203569
aI21329983
aI937937953
aI2266197758
aI12715452
aI232398358
aI283326630
aI2229293689
aI12655722
aI45968873
aI2841540443
aI215665981
aI10320692
aI74286565
aI7990912
aI21740184
aI14129777
aI191595758
aI267198300
aI884476928
aI2577401
aI2660523104
aI15319834
aI14242083
aI3018236758
aI499014749
aI242926155
aI21991908
aI18129188
aI18450514
aI26376670
aI2220913086
aI219213506
aI26465184
aI124797824
aI18226927
aI1617314359
aI15318226
aI271385968
aI139187533
aI15207922
aI2152700042
aI4829901
aI465210389
aI1125331
aI92808825
aI246167664
aI1692248610
aI2920710155
aI18573153
aI3008485657
aI22954575
aI123266228
aI16067035
aI156649929
aI311492628
aI727192716
aI383151103
aI578266551
aI2205634986
aI144657987
aI32439375
aI385967664
aI16625303
aI14327108
aI214122455
aI12876
aI37444754
aI14886375
aI899060762
aI19766166
aI13334762
aI1657316904
aI407993045
aI211800056
aI115815571
aI294207022
aI22403036
aI25414292
aI161792915
aI27643111
aI168177481
aI423922480
aI416560047
aI119906355
aI165401136
aI114216916
aI95328848
aI2326251343
aI38196305
aI16319594
aI5660312
aI134418860
aI381326641
aI743439025
aI18362117
aI484108501
aI51015944
aI76011434
aI15502416
aI3108351
aI16411207
aI873592850
aI177319012
aI132306171
aI1144766852
aI2787460315
aI113595610
aI82468830
aI1098055290
aI518605526
aI24621862
aI10756682
aI1270136126
aI2857134517
aI365231575
aI26410581
aI88172962
aI64253234
aI2349415231
aI289610659
aI555031989
aI49344076
aI118154526
aI552951614
aI153485182
aI37270367
aI600436881
aI105939344
aI14795132
aI17062686
aI15354468
aI67250704
aI377654770
aI15434753
aI14259159
aI26092075
aI9983942
aI14203267
aI15448600
aI12479602
aI14812261
aI16945095
aI13727212
aI45530508
aI32987772
aI16166254
aI30662381
aI310658549
aI2409137989
aI210520672
aI173330451
aI17590159
aI23238890
aI1291259790
aI57309864
aI926539050
aI120789095
aI47667937
aI18679393
aI2471392249
aI10998802
aI25020767
aI10368262
aI7650202
aI8298342
aI28685631
aI11821802
aI343911360
aI21466915
aI152014438
aI762144638
aI8799612
aI1019661
aI14337485
aI14409295
aI34270918
aI6870422
aI77343214
aI14950071
aI17407556
aI641003
aI1392281
aI3729891
aI12963432
aI85328631
aI2416024364
aI15821652
aI1583811
aI14635493
aI14835908
aI11486902
aI9478892
aI1135898966
aI14779502
aI6117302
aI295808141
aI11133592
aI204877942
aI107086140
aI149460258
aI196649191
aI390452975
aI2197375387
aI59133
aI47944691
aI29544276
aI18379324
aI14241390
aI432645123
aI2194798802
aI28932064
aI15119687
aI15096071
aI1958501450
aI769810723
aI130256377
aI2547755244
aI2564318257
aI38038946
aI566029700
aI326134646
aI119661442
aI626172964
aI69696928
aI2521030569
aI16567337
aI35499215
aI133414630
aI1411699722
aI14351877
aI73557772
aI1561758804
aI77114617
aI821228
aI1044836251
aI544306945
aI27820436
aI41325492
aI145460854
aI57825056
aI12285052
aI270031787
aI14460798
aI822499496
aI712765489
aI79081718
aI5039811
aI2212867410
aI129335062
aI18447527
aI18067482
aI19608810
aI414751406
aI48072654
aI299405400
aI28976394
aI1599255330
aI577250082
aI2486468378
aI89977281
aI424486954
aI701461778
aI2568680452
aI2222234311
aI57446930
aI6026352
aI15734228
aI167108955
aI42597316
aI319096526
aI220275806
aI224324013
aI1054158356
aI57039643
aI27202092
aI150673764
aI1591443828
aI1570501778
aI282824035
aI26207814
aI90814629
aI50197462
aI393285785
aI94163362
aI2158171155
aI544628325
aI321613749
aI916247083
aI171103056
aI1625307866
aI295431651
aI556225846
aI1033527416
aI43948593
aI124208379
aI9303692
aI11501822
aI100067469
aI705525051
aI36759766
aI605934790
aI174312391
aI14846230
aI12468462
aI181287590
aI234141928
aI30039110
aI27673846
aI1022321616
aI427762009
aI14428821
aI352451627
aI403789457
aI2227919366
aI507345308
aI2731649666
aI27370703
aI20204055
aI192484503
aI251007573
aI2420694793
aI75419387
aI163999320
aI86721562
aI4811951
aI101614140
aI116506643
aI156392519
aI215221022
aI269874719
aI38222781
aI15201743
aI2771975857
aI171638608
aI1361561
aI31346151
aI1637260448
aI1548262207
aI144529492
aI2358581372
aI14925432
aI112529649
aI14461391
aI220884157
aI13756062
aI94575557
aI28553904
aI13353062
aI19338237
aI144584279
aI46022235
aI80648956
aI14698049
aI47634906
aI1163031882
aI1626273211
aI2232090218
aI89477419
aI27572646
aI49350590
aI259716070
aI1013585586
aI446097743
aI331027719
aI290740882
aI47538762
aI345265619
aI19798401
aI1665847081
aI20004149
aI14169957
aI1047601069
aI14126742
aI133741326
aI180075274
aI33926742
aI1488787292
aI17108186
aI17827236
aI2786748894
aI30832490
aI132740937
aI250039225
aI50410039
aI17958609
aI288700688
aI200138717
aI1103966383
aI1213702202
aI2800073955
aI333534745
aI35852452
aI15265603
aI2480063900
aI2766189458
aI215313391
aI766991666
aI1517398686
aI221071401
aI43833
aI514116437
aI171370802
aI366019910
aI1180887055
aI1050147157
aI53250831
aI6180462
aI133350167
aI23096778
aI19623389
aI142204344
aI187332585
aI95287610
aI66994371
aI482856632
aI86893742
aI16376331
aI434513
aI707037571
aI134224222
aI210542459
aI185862483
aI41234171
aI27048503
aI39499934
aI9941872
aI306364792
aI15673201
aI28135095
aI438777477
aI2851135722
aI578321811
aI115566149
aI14147533
aI94813109
aI9899312
aI940458986
aI301457917
aI2769315705
aI224571574
aI619770811
aI213372153
aI236094723
aI143563622
aI493248172
aI26432757
aI34987463
aI14907160
aI276410478
aI30722040
aI598060018
aI861740504
aI15637605
aI245045475
aI32441383
aI189078959
aI20789693
aI217711421
aI10914122
aI224770892
aI16508178
aI305663952
aI23989269
aI67665536
aI20573668
aI2381060563
aI366138654
aI21639927
aI1274355858
aI857800218
aI332207582
aI40031019
aI416357737
aI111914330
aI408303912
aI42856385
aI887613451
aI90959713
aI882479978
aI2160283195
aI11518572
aI17534675
aI1379216077
aI2872535697
aI14660566
aI5757882
aI272542943
aI108243501
aI18464115
aI220931638
aI4054931
aI159255795
aI143448796
aI1624141777
aI218924334
aI19101772
aI14532023
aI18949285
aI613587123
aI2416672968
aI200498525
aI251062104
aI15177772
aI744564421
aI370634604
aI91290311
aI2408008560
aI2788143764
aI23341395
aI322803973
aI140337831
aI14067742
aI1686456547
aI580813127
aI35457619
aI1072094977
aI829795184
aI56692866
aI20567308
aI400831096
aI233831325
aI2807629028
aI2605678636
aI31137628
aI18780307
aI19489786
aI618984726
aI74956332
aI2846069642
aI17481836
aI2741402129
aI14398717
aI244166143
aI2875546055
aI492463980
aI2891678103
aI470395918
aI577195836
aI296452545
aI30120541
aI96785617
aI253771802
aI28805349
aI22495353
aI24083751
aI17460249
aI611769076
aI82944719
aI225745066
aI2342827380
aI2504289194
aI228405290
aI1275412578
aI61932015
aI189416211
aI825584982
aI20047457
aI11145462
aI14684697
aI16210873
aI110540978
aI13683682
aI35267684
aI56618279
aI2830387224
aI2908334115
aI43480094
aI100653944
aI167550380
aI57190069
aI1323115201
aI448885968
aI2474140434
aI14213083
aI11393822
aI2348658068
aI273282272
aI2489595012
aI25224317
aI2751246342
aI95968051
aI47864778
aI205669583
aI344276754
aI20476532
aI2245543230
aI15772978
aI951950858
aI249689870
aI12167932
aI362375865
aI290710059
aI17609462
aI935531414
aI100724380
aI2869923004
aI39463414
aI576032109
aI372830727
aI44553235
aI2384513143
aI1013455706
aI18265368
aI45302427
aI262327913
aI17161763
aI596681629
aI121457331
aI2906395214
aI141951273
aI455231540
aI21320906
aI23786688
aI83199738
aI153779379
aI104169542
aI22300059
aI2520999920
aI314897633
aI1337085834
aI315347232
aI2963252061
aI292296508
aI6201512
aI4099261
aI14159138
aI457886651
aI6040792
aI855015445
aI28165790
aI15426758
aI8359872
aI2816908093
aI21011627
aI213579515
aI64169990
aI819632174
aI98689850
aI2305208034
aI259725229
aI188352302
aI153998882
aI79178178
aI2740306555
aI7708932
aI806187793
aI1539473623
aI1084111308
aI266648619
aI527838270
aI5692542
aI2431816790
aI2583992947
aI137795666
aI48747910
aI534563976
aI276879782
aI321666686
aI14578294
aI6899782
aI17132311
aI16254766
aI15366875
aI69133574
aI14977851
aI369758524
aI127482711
aI20639941
aI1413197468
aI14923444
aI6146692
aI14917418
aI906601453
aI558960079
aI764988974
aI537805181
aI747911340
aI962425364
aI15811342
aI365014318
aI31762262
aI502297701
aI1548959833
aI16887429
aI934681
aI167169119
aI18318677
aI36392264
aI14639127
aI22278215
aI36241332
aI477906156
aI14763983
aI16332914
aI89028456
aI92598387
aI24037404
aI40818079
aI21713505
aI14100497
aI14611986
aI244991150
aI11790752
aI3781441
aI768197780
aI21308466
aI379923901
aI76773127
aI987181214
aI23204397
aI148944935
aI750554018
aI662433
aI109182148
aI14974181
aI35846244
aI17106514
aI48137892
aI14428320
aI2633711
aI15804774
aI55689655
aI6270652
aI19776032
aI63873759
aI20958216
aI20776322
aI12448992
aI15748351
aI14601540
aI1554031
aI765548
aI16112517
aI234995113
aI78729443
aI111407412
aI89447848
aI22839233
aI6968622
aI15301028
aI14209229
aI255617445
aI74464747
aI16000294
aI16120736
aI16269613
aI370409954
aI261665936
aI15423006
aI79703784
aI125695429
aI14313383
aI115494880
aI32546966
aI8472272
aI188768528
aaI913020996
aI2515410130
aI340383579
aI188572121
aI3121080694
aI134910253
aI471363110
aI2432506616
aI322172045
aI21632935
aI135549798
aI187784772
aI2916009329
aI415836395
aI2953955753
aI126783988
aI170467507
aI1883840910
aI1462946983
aI187994187
aI245901764
aI317214518
aI2726973024
aI627904763
aI1483041949
aI249165540
aI2426071074
aI123937349
aI100731315
aI357597780
aI159209098
aI256539708
aI119844526
aI270168698
aI144801356
aI148848199
aI2249583145
aI2331998028
aI201753083
aI152657495
aI508260162
aI1963312058
aI1307745198
aI242448965
aI2575049887
aI838352730
aI2359639830
aI2496727376
aI195470431
aI137813649
aI145776471
aI1222461727
aI165021063
aI2343126791
aI2201400044
aI112822128
aI1300716044
aI2314235730
aI1864359570
aI164791463
aI195162904
aI269820826
aI1482333253
aI147610206
aI121039771
aI196362385
aI133398816
aI231515996
aI567413989
aI118440578
aI507419507
aI262857572
aI402887468
aI1488464694
aI219555677
aI169579393
aI730926774
aI289426556
aI19722366
aI104854083
aI151190865
aI361445173
aI131574396
aI73172922
aI144307376
aI450577726
aI186851803
aI140918478
aI177342424
aI1577740825
aI369120654
aI295751970
aI1541551218
aI885618884
aI1208905818
aI1451506626
aI284811417
aI333651307
aI349106585
aI326807652
aI162255990
aI151597127
aI1022835528
aI537300529
aI152325528
aI243865469
aI1252764865
aI337425958
aI517160701
aI430072775
aI182644738
aI123343605
aI38653251
aI156047793
aI154542076
aI262368699
aI153900887
aI152429172
aI153169998
aI350923859
aI209711679
aI27515656
aI143852870
aI137879024
aI147357713
aI178045933
aI250173868
aI216080411
aI116313517
aI142526936
aI145685744
aI59604175
aI166177152
aI138421968
aI171650522
aI161308045
aI144929758
aI182236283
aI53108902
aI67415282
aI167253149
aI148752676
aI137810514
aI150372271
aI67334466
aI148194379
aI31133330
aI142532652
aI135042050
aI182925466
aI195691612
aI150903507
aI198756401
aI138814032
aI119998164
a.