(lp0
(lp1
I2350904161
aI15319524
aI2713589684
aI17375116
aI284718050
aI235261861
aI16373878
aI14519296
aI16134137
aI2230395241
aI206458131
aI28442880
aI1132876218
aI14792516
aI25070364
aI14591071
aI501968170
aI476700973
aI988
aI20964111
aI33696409
aI20167623
aI393033324
aI580240697
aI291222300
aI1137408992
aI405033226
aI14109167
aI419639256
aI1227698863
aI2343198944
aI22022138
aI17449590
aI49383389
aI14284157
aI80422885
aI92746008
aI798227418
aI67653490
aI82474825
aI2821347210
aI3098427092
aI335564286
aI186718830
aI18677659
aI471550563
aI53058714
aI972467905
aI3422200198
aI68119671
aI216710864
aI14759482
aI21473325
aI186662038
aI803694
aI896384784
aI334984155
aI11436352
aI339550132
aI705323538
aI2615770806
aI17281021
aI19238948
aI14699038
aI1167122150
aI7202792
aI2485229282
aI23701093
aI17971178
aI26288495
aI14833643
aI48783
aI14225998
aI31099876
aI609570013
aI78796214
aI2191310089
aI123207494
aI364233030
aI820220803
aI18489269
aI78629008
aI3271987302
aI888903679
aI16882567
aI104533711
aI70377736
aI49413866
aI18104734
aI14737692
aI243046720
aI184241690
aI29891068
aI7381872
aI2790695709
aI42715919
aI71309593
aI1528940509
aI61357947
aI190363590
aI63545584
aI169326420
aI3167735132
aI2252421404
aI121880027
aI2464050332
aI18089442
aI348115541
aI46093836
aI499339900
aI12333392
aI232756064
aI997612868
aI48823
aI167771451
aI36828624
aI15455351
aI44132813
aI2173431552
aI14012982
aI54587658
aI20927065
aI2261853764
aI1377373945
aI18060279
aI115683727
aI16743670
aI1861831111
aI205809769
aI3018841323
aI3045030161
aI1711047840
aI315326304
aI1447135560
aI113720154
aI37261890
aI762887
aI2291644742
aI17954385
aI119609619
aI1037776201
aI21561362
aI1358475462
aI55460891
aI27481773
aI7636532
aI1038630643
aI179123685
aI796971
aI62951951
aI14982388
aI2220121196
aI27673093
aI230032663
aI881530736
aI481867656
aI59973104
aI1068951084
aI387441165
aI1006391
aI1565839604
aI461145277
aI408501650
aI5453342
aI5812922
aI45396158
aI2674004713
aI47996375
aI14458327
aI22873270
aI18557975
aI1118213371
aI15806599
aI195287103
aI232242719
aI181214988
aI3094419055
aI621621636
aI19016936
aI16899399
aI48036610
aI39673716
aI98445488
aI2882893927
aI370491825
aI104241306
aI27048570
aI2459973295
aI25492486
aI17672969
aI108607900
aI145877180
aI9343172
aI1430212274
aI19091929
aI2986389487
aI537010391
aI274022678
aI270535653
aI126638564
aI36693977
aI14614643
aI535346467
aI72246361
aI292233068
aI38717115
aI98330606
aI62875937
aI862634508
aI20322875
aI613281860
aI26980868
aI260828202
aI2682780438
aI358505221
aI359128088
aI137492420
aI564247895
aI465978475
aI2340587567
aI255051048
aI1207137014
aI35188021
aI121423171
aI15330301
aI1261001742
aI41286065
aI201805698
aI8790042
aI14356553
aI39048008
aI4167551
aI38407927
aI18002445
aI449137603
aI2597261940
aI2532220603
aI446455772
aI251757939
aI2319417366
aI632509970
aI316651357
aI1235931
aI18638210
aI10756512
aI85934576
aI82980542
aI99396989
aI15008596
aI245375434
aI22042824
aI1433864449
aI600375587
aI64285032
aI414871520
aI716213
aI764695566
aI293912768
aI1925900647
aI747452694
aI2883425457
aI17922397
aI177411555
aI22970224
aI3131058580
aI38637367
aI168525808
aI20803047
aI316568450
aI162310683
aI44374064
aI36363157
aI565907195
aI17972404
aI885603211
aI8749512
aI557285432
aI59169615
aI50060349
aI1121028973
aI30028674
aI8980232
aI969542076
aI38879532
aI24394261
aI539543397
aI1618591
aI15465372
aI2318606822
aI1311288720
aI39687164
aI10915042
aI16186995
aI29045729
aI16592167
aI284739139
aI5717402
aI819233706
aI46045072
aI981913968
aI132703600
aI14203569
aI21329983
aI937937953
aI2266197758
aI12715452
aI232398358
aI283326630
aI2229293689
aI12655722
aI45968873
aI2841540443
aI215665981
aI10320692
aI74286565
aI7990912
aI21740184
aI14129777
aI191595758
aI267198300
aI884476928
aI2577401
aI2660523104
aI15319834
aI14242083
aI3018236758
aI499014749
aI242926155
aI21991908
aI18129188
aI18450514
aI26376670
aI2220913086
aI219213506
aI26465184
aI124797824
aI18226927
aI1617314359
aI15318226
aI271385968
aI139187533
aI15207922
aI2152700042
aI4829901
aI465210389
aI1125331
aI92808825
aI246167664
aI1692248610
aI2920710155
aI18573153
aI3008485657
aI22954575
aI123266228
aI16067035
aI156649929
aI311492628
aI727192716
aI383151103
aI578266551
aI2205634986
aI144657987
aI32439375
aI385967664
aI16625303
aI14327108
aI214122455
aI12876
aI37444754
aI14886375
aI899060762
aI19766166
aI13334762
aI1657316904
aI407993045
aI211800056
aI115815571
aI294207022
aI22403036
aI25414292
aI161792915
aI27643111
aI168177481
aI423922480
aI416560047
aI119906355
aI165401136
aI114216916
aI95328848
aI2326251343
aI38196305
aI16319594
aI5660312
aI134418860
aI381326641
aI743439025
aI18362117
aI484108501
aI51015944
aI76011434
aI15502416
aI3108351
aI16411207
aI873592850
aI177319012
aI132306171
aI1144766852
aI2787460315
aI113595610
aI82468830
aI1098055290
aI518605526
aI24621862
aI10756682
aI1270136126
aI2857134517
aI365231575
aI26410581
aI88172962
aI64253234
aI2349415231
aI289610659
aI555031989
aI49344076
aI118154526
aI552951614
aI153485182
aI37270367
aI600436881
aI105939344
aI14795132
aI17062686
aI15354468
aI67250704
aI377654770
aI15434753
aI14259159
aI26092075
aI9983942
aI14203267
aI15448600
aI12479602
aI14812261
aI16945095
aI13727212
aI45530508
aI32987772
aI16166254
aI30662381
aI310658549
aI2409137989
aI210520672
aI173330451
aI17590159
aI23238890
aI1291259790
aI57309864
aI926539050
aI120789095
aI47667937
aI18679393
aI2471392249
aI10998802
aI25020767
aI10368262
aI7650202
aI8298342
aI28685631
aI11821802
aI343911360
aI21466915
aI152014438
aI762144638
aI8799612
aI1019661
aI14337485
aI14409295
aI34270918
aI6870422
aI77343214
aI14950071
aI17407556
aI641003
aI1392281
aI3729891
aI12963432
aI85328631
aI2416024364
aI15821652
aI1583811
aI14635493
aI14835908
aI11486902
aI9478892
aI1135898966
aI14779502
aI6117302
aI295808141
aI11133592
aI204877942
aI107086140
aI149460258
aI196649191
aI390452975
aI2197375387
aI59133
aI47944691
aI29544276
aI18379324
aI14241390
aI432645123
aI2194798802
aI28932064
aI15119687
aI15096071
aI1958501450
aI769810723
aI130256377
aI2547755244
aI2564318257
aI38038946
aI566029700
aI326134646
aI119661442
aI626172964
aI69696928
aI2521030569
aI16567337
aI35499215
aI133414630
aI1411699722
aI14351877
aI73557772
aI1561758804
aI77114617
aI821228
aI1044836251
aI544306945
aI27820436
aI41325492
aI145460854
aI57825056
aI12285052
aI270031787
aI14460798
aI822499496
aI712765489
aI79081718
aI5039811
aI2212867410
aI129335062
aI18447527
aI18067482
aI19608810
aI414751406
aI48072654
aI299405400
aI28976394
aI1599255330
aI577250082
aI2486468378
aI89977281
aI424486954
aI701461778
aI2568680452
aI2222234311
aI57446930
aI6026352
aI15734228
aI167108955
aI42597316
aI319096526
aI220275806
aI224324013
aI1054158356
aI57039643
aI27202092
aI150673764
aI1591443828
aI1570501778
aI282824035
aI26207814
aI90814629
aI50197462
aI393285785
aI94163362
aI2158171155
aI544628325
aI321613749
aI916247083
aI171103056
aI1625307866
aI295431651
aI556225846
aI1033527416
aI43948593
aI124208379
aI9303692
aI11501822
aI100067469
aI705525051
aI36759766
aI605934790
aI174312391
aI14846230
aI12468462
aI181287590
aI234141928
aI30039110
aI27673846
aI1022321616
aI427762009
aI14428821
aI352451627
aI403789457
aI2227919366
aI507345308
aI2731649666
aI27370703
aI20204055
aI192484503
aI251007573
aI2420694793
aI75419387
aI163999320
aI86721562
aI4811951
aI101614140
aI116506643
aI156392519
aI215221022
aI269874719
aI38222781
aI15201743
aI2771975857
aI171638608
aI1361561
aI31346151
aI1637260448
aI1548262207
aI144529492
aI2358581372
aI14925432
aI112529649
aI14461391
aI220884157
aI13756062
aI94575557
aI28553904
aI13353062
aI19338237
aI144584279
aI46022235
aI80648956
aI14698049
aI47634906
aI1163031882
aI1626273211
aI2232090218
aI89477419
aI27572646
aI49350590
aI259716070
aI1013585586
aI446097743
aI331027719
aI290740882
aI47538762
aI345265619
aI19798401
aI1665847081
aI20004149
aI14169957
aI1047601069
aI14126742
aI133741326
aI180075274
aI33926742
aI1488787292
aI17108186
aI17827236
aI2786748894
aI30832490
aI132740937
aI250039225
aI50410039
aI17958609
aI288700688
aI200138717
aI1103966383
aI1213702202
aI2800073955
aI333534745
aI35852452
aI15265603
aI2480063900
aI2766189458
aI215313391
aI766991666
aI1517398686
aI221071401
aI43833
aI514116437
aI171370802
aI366019910
aI1180887055
aI1050147157
aI53250831
aI6180462
aI133350167
aI23096778
aI19623389
aI142204344
aI187332585
aI95287610
aI66994371
aI482856632
aI86893742
aI16376331
aI434513
aI707037571
aI134224222
aI210542459
aI185862483
aI41234171
aI27048503
aI39499934
aI9941872
aI306364792
aI15673201
aI28135095
aI438777477
aI2851135722
aI578321811
aI115566149
aI14147533
aI94813109
aI9899312
aI940458986
aI301457917
aI2769315705
aI224571574
aI619770811
aI213372153
aI236094723
aI143563622
aI493248172
aI26432757
aI34987463
aI14907160
aI276410478
aI30722040
aI598060018
aI861740504
aI15637605
aI245045475
aI32441383
aI189078959
aI20789693
aI217711421
aI10914122
aI224770892
aI16508178
aI305663952
aI23989269
aI67665536
aI20573668
aI2381060563
aI366138654
aI21639927
aI1274355858
aI857800218
aI332207582
aI40031019
aI416357737
aI111914330
aI408303912
aI42856385
aI887613451
aI90959713
aI882479978
aI2160283195
aI11518572
aI17534675
aI1379216077
aI2872535697
aI14660566
aI5757882
aI272542943
aI108243501
aI18464115
aI220931638
aI4054931
aI159255795
aI143448796
aI1624141777
aI218924334
aI19101772
aI14532023
aI18949285
aI613587123
aI2416672968
aI200498525
aI251062104
aI15177772
aI744564421
aI370634604
aI91290311
aI2408008560
aI2788143764
aI23341395
aI322803973
aI140337831
aI14067742
aI1686456547
aI580813127
aI35457619
aI1072094977
aI829795184
aI56692866
aI20567308
aI400831096
aI233831325
aI2807629028
aI2605678636
aI31137628
aI18780307
aI19489786
aI618984726
aI74956332
aI2846069642
aI17481836
aI2741402129
aI14398717
aI244166143
aI2875546055
aI492463980
aI2891678103
aI470395918
aI577195836
aI296452545
aI30120541
aI96785617
aI253771802
aI28805349
aI22495353
aI24083751
aI17460249
aI611769076
aI82944719
aI225745066
aI2342827380
aI2504289194
aI228405290
aI1275412578
aI61932015
aI189416211
aI825584982
aI20047457
aI11145462
aI14684697
aI16210873
aI110540978
aI13683682
aI35267684
aI56618279
aI2830387224
aI2908334115
aI43480094
aI100653944
aI167550380
aI57190069
aI1323115201
aI448885968
aI2474140434
aI14213083
aI11393822
aI2348658068
aI273282272
aI2489595012
aI25224317
aI2751246342
aI95968051
aI47864778
aI205669583
aI344276754
aI20476532
aI2245543230
aI15772978
aI951950858
aI249689870
aI12167932
aI362375865
aI290710059
aI17609462
aI935531414
aI100724380
aI2869923004
aI39463414
aI576032109
aI372830727
aI44553235
aI2384513143
aI1013455706
aI18265368
aI45302427
aI262327913
aI17161763
aI596681629
aI121457331
aI2906395214
aI141951273
aI455231540
aI21320906
aI23786688
aI83199738
aI153779379
aI104169542
aI22300059
aI2520999920
aI314897633
aI1337085834
aI315347232
aI2963252061
aI292296508
aI6201512
aI4099261
aI14159138
aI457886651
aI6040792
aI855015445
aI28165790
aI15426758
aI8359872
aI2816908093
aI21011627
aI213579515
aI64169990
aI819632174
aI98689850
aI2305208034
aI259725229
aI188352302
aI153998882
aI79178178
aI2740306555
aI7708932
aI806187793
aI1539473623
aI1084111308
aI266648619
aI527838270
aI5692542
aI2431816790
aI2583992947
aI137795666
aI48747910
aI534563976
aI276879782
aI321666686
aI14578294
aI6899782
aI17132311
aI16254766
aI15366875
aI69133574
aI14977851
aI369758524
aI127482711
aI20639941
aI1413197468
aI14923444
aI6146692
aI14917418
aI906601453
aI558960079
aI764988974
aI537805181
aI747911340
aI962425364
aI15811342
aI365014318
aI31762262
aI502297701
aI1548959833
aI16887429
aI934681
aI167169119
aI18318677
aI36392264
aI14639127
aI22278215
aI36241332
aI477906156
aI14763983
aI16332914
aI89028456
aI92598387
aI24037404
aI40818079
aI21713505
aI14100497
aI14611986
aI244991150
aI11790752
aI3781441
aI768197780
aI21308466
aI379923901
aI76773127
aI987181214
aI23204397
aI148944935
aI750554018
aI662433
aI109182148
aI14974181
aI35846244
aI17106514
aI48137892
aI14428320
aI2633711
aI15804774
aI55689655
aI6270652
aI19776032
aI63873759
aI20958216
aI20776322
aI12448992
aI15748351
aI14601540
aI1554031
aI765548
aI16112517
aI234995113
aI78729443
aI111407412
aI89447848
aI22839233
aI6968622
aI15301028
aI14209229
aI255617445
aI74464747
aI16000294
aI16120736
aI16269613
aI370409954
aI261665936
aI15423006
aI79703784
aI125695429
aI14313383
aI115494880
aI32546966
aI8472272
aI188768528
aaI913020996
aI2515410130
aI340383579
aI188572121
aI3121080694
aI134910253
aI471363110
aI2432506616
aI322172045
aI21632935
aI135549798
aI187784772
aI2916009329
aI415836395
aI2953955753
aI126783988
aI170467507
aI1883840910
aI1462946983
aI187994187
aI245901764
aI317214518
aI2726973024
aI627904763
aI1483041949
aI249165540
aI2426071074
aI123937349
aI100731315
aI357597780
aI159209098
aI256539708
aI119844526
aI270168698
aI144801356
aI148848199
aI2249583145
aI2331998028
aI201753083
aI152657495
aI508260162
aI1963312058
aI1307745198
aI242448965
aI2575049887
aI838352730
aI2359639830
aI2496727376
aI195470431
aI137813649
aI145776471
aI1222461727
aI165021063
aI2343126791
aI2201400044
aI112822128
aI1300716044
aI2314235730
aI1864359570
aI164791463
aI195162904
aI269820826
aI1482333253
aI147610206
aI121039771
aI196362385
aI133398816
aI231515996
aI567413989
aI118440578
aI507419507
aI262857572
aI402887468
aI1488464694
aI219555677
aI169579393
aI730926774
aI289426556
aI19722366
aI104854083
aI151190865
aI361445173
aI131574396
aI73172922
aI144307376
aI450577726
aI186851803
aI140918478
aI177342424
aI1577740825
aI369120654
aI295751970
aI1541551218
aI885618884
aI1208905818
aI1451506626
aI284811417
aI333651307
aI349106585
aI326807652
aI162255990
aI151597127
aI1022835528
aI537300529
aI152325528
aI243865469
aI1252764865
aI337425958
aI517160701
aI430072775
aI182644738
aI123343605
aI38653251
aI156047793
aI154542076
aI262368699
aI153900887
aI152429172
aI153169998
aI350923859
aI209711679
aI27515656
aI143852870
aI137879024
aI147357713
aI178045933
aI250173868
aI216080411
aI116313517
aI142526936
aI145685744
aI59604175
aI166177152
aI138421968
aI171650522
aI161308045
aI144929758
aI182236283
aI53108902
aI67415282
aI167253149
aI148752676
aI137810514
aI150372271
aI67334466
aI148194379
aI31133330
aI142532652
aI135042050
aI182925466
aI195691612
aI150903507
aI198756401
aI138814032
aI119998164
aI284663360
aI172056386
aI86091420
aI153133506
aI86524041
aI366773896
aI3342742852
aI400171325
aI284811417
aI1912178952
aI60647069
aI85646675
aI145836483
aI19826372
aI64262053
aI3387487113
aI191832718
aI312363570
aI221751137
aI63805777
aI187604730
aI142347048
aI2859085672
aI259922104
aI935088068
aI1598951042
aI346011534
aI2333009595
aI1883884669
aI3064553032
aI93677129
aI1436419968
aI336768978
aI297681530
aI259725229
aI183249555
aI177157830
aI256536712
aI109378983
aI16812171
aI156634781
aI47705568
aI172459493
aI3064617100
aI3066023193
aI2528487859
aI60308942
aI3083942159
aI16298713
aI15651938
aI2969821240
aI3021422091
aI600332645
aI16919454
aI59692099
aI16896485
aI55023471
aI16294264
aI175881965
aI182923335
aI146989389
aI126783988
aI715185320
aI190503473
aI157760780
aI116313517
aI27515656
aI38078904
aI145685744
aI137810514
aI421667035
aI154127035
aI7649082
aI16012783
aI17645400
aI60937847
aI237491674
aI1630896181
aI14511951
aI8936082
aI73190286
aI35773039
aI2340558698
aI2303751216
aI16955870
aI2347049341
aI2902546372
aI10431862
aI28607199
aI2923678745
aI2432788310
aI2905232597
aI256731846
aI16845868
aI2921888260
aI1143031364
aI50104358
aI23778038
aI16386970
aI19430233
aI17285007
aI187627020
aI2842325931
aI1069915254
aI384012797
aI29722335
aI1685818381
aI18807424
aI447335163
aI16909981
aI222966073
aI913020996
aI39798856
aI150896378
aI205328510
aI1285759315
aI285646074
aI1315565869
aI160215760
aI600706710
aI2843819853
aI517662064
aI64962925
aI159280904
aI281190679
aI218659553
aI436601306
aI2497335817
aI2781001027
aI2608505316
aI158000198
aI192623977
aI1902092012
aI151909444
aI600493267
aI2348523218
aI6489102
aI38659825
aI154142442
aI2601934238
aI281087126
aI28785486
aI14434070
aI1991
aI15376620
aI604531321
aI2340296290
aI312784108
aI1613008987
aI166670881
aI2336599477
aI1651024046
aI2469102632
aI17876028
aI608160325
aI279187115
aI1047988202
aI79003449
aI141239908
aI196732423
aI128919685
aI157833202
aI306546830
aI149096668
aI1566494670
aI346636216
aI167170841
aI29498915
aI16916881
aI61845000
aI199872752
aI1652553704
aI1430517463
aI297993343
aI148125585
aI271129391
aI212323495
aI1735762856
aI149633982
aI140565175
aI155633441
aI36082802
aI18949452
aI742143
aI2467791
aI14293310
aI92794844
aI198518440
aI3108351
aI289627577
aI14677919
aI2890961
aI2432261166
aI495076725
aI359791727
aI1344951
aI327934808
aI1131517400
aI328741208
aI625257832
aI2222123156
aI1043124925
aI243281928
aI130574455
aI216493469
aI389580276
aI173956548
aI124005907
aI597004473
aI336208792
aI127715027
aI306324618
aI2559435350
aI2557292304
aI538482442
aI39819578
aI297144638
aI263193752
aI23611110
aI80469108
aI38183689
aI115156882
aI52693558
aI251698248
aI154540508
aI17775516
aI29251066
aI257440915
aI7910642
aI166208562
aI46996063
aI140837392
aI376982916
aI147379436
aI14761795
aI85544596
aI175824869
aI9976792
aI188972013
aI272822625
aI36623
aI18149474
aI288201615
aI50635048
aI2735591
aI157506571
aI338581466
aI434711928
aI778057
aI386175131
aI395635845
aI18791654
aI7746812
aI53198511
aI32135630
aI60642052
aI441389311
aI1140451
aI14080017
aI177158631
aI35839931
aI139557950
aI1120611
aI14245378
aI4278201
aI296673321
aI36378198
aI539067689
aI13982132
aI15889916
aI136794480
aI15866188
aI255571625
aI49658852
aI5943622
aI12375732
aI14289474
aI17114911
aI217287525
aI701725963
aI15129069
aI48243
aI16394922
aI15115726
aI32178166
aI94143715
aI1332744931
aI351360292
aI179501772
aI130277239
aI181408748
aI171468523
aI183408601
aI1710068928
aI149254440
aI1613292079
aI562024895
aI52439490
aI2565710280
aI177809862
aI29889593
aI13
aI15492359
aI93957809
aI20562637
aI67358777
aI34713362
aI32359921
aI14800270
aI300527025
aI2495199115
aI37852433
aI208689831
aI91691295
aI180387621
aI17075825
aI14819480
aI43026778
aI13496502
aI564815375
aI87449763
aI79233906
aI27511431
aI26545036
aI32995666
aI150788625
aI29111965
aI71630576
aI2444574164
aI2440446480
aI2440579086
aI833699671
aI405786503
aI32867314
aI17367621
aI77054929
aI245486782
aI1689828444
aI7341072
aI132576891
aI313378786
aI1935245784
aI244121894
aI186821287
aI20640328
aI2384305656
aI370684239
aI276275938
aI12480582
aI15846407
aI31080039
aI41894007
aI155612697
aI163151892
aI801202
aI285279260
aI18015257
aI9930912
aI253100712
aI255747911
aI132044792
aI779977
aI355002467
aI20646380
aI35634992
aI7805282
aI130893902
aI117185027
aI325778405
aI50761379
aI95165004
aI1148217746
aI176409705
aI721013767
aI2191021340
aI145294106
aI20571756
aI277426068
aI2206099886
aI71793144
aI137762463
aI185702157
aI366812828
aI43980856
aI794340
aI183330157
aI174027585
aI15446531
aI5460112
aI537300529
aI20532076
aI16364983
aI523332812
aI17822644
aI5722742
aI626464350
aI72925674
aI1336231
aI91478624
aI2270533266
aI145495078
aI14374517
aI10141482
aI403081996
aI1419089665
aI40273
aI2529971
aI161487460
aI171922176
aI172245766
aI186849324
aI190751182
aI193753932
aI195881889
aI199433128
aI199793152
aI211629101
aI224342210
aI229183969
aI292619451
aI294294672
aI299774762
aI299960891
aI214610614
aI7173822
aI64368500
aI271070879
aI16296057
aI16246929
aI989
aI166141388
aI366971503
aI6825792
aI97709663
aI2249509056
aI196565807
aI11107172
aI2240928494
aI178916788
aI205842311
aI187613563
aI84947661
aI159449278
aI58001833
aI312146187
aI160766181
aI2178248406
aI135614028
aI213624880
aI143852870
aI10950722
aI164089233
aI16311406
aI2162849983
aI263872477
aI152805251
aI31939931
aI440503846
aI102537498
aI252633165
aI239760107
aI150677941
aI1894416104
aI69371831
aI186435772
aI103686885
aI166368858
aI235097193
aI366656774
aI14976351
aI914367366
aI278093318
aI214622995
aI18333228
aI147572747
aI209147745
aI1227862165
aI612886269
aI141286250
aI1487994810
aI130952346
aI435268796
aI155629617
aI233858414
aI61800365
aI1636590253
aI132573995
aI789744163
aI112325707
aI28128198
aI13404292
aI822935
aI281281015
aI20056740
aI1694059050
aI163884594
aI1710812468
aI23689124
aI198247347
aI1353239197
aI268058689
aI418178100
aI861584438
aI1483580647
aI600334924
aI93849556
aI135863887
aI312376008
aI16311478
aI38690503
aI382623828
aI1186430983
aI134221261
aI18622869
aI1635285236
aI1346817726
aI173301570
aI19337560
aI169605093
aI207618471
aI581013325
aI155640631
aI186459666
aI67968257
aI574753254
aI431075067
aI329265923
aI75271599
aI265529124
aI72394932
aI156513015
aI1526345940
aI143430337
aI19199039
aI361564167
aI248817187
aI83470015
aI174043838
aI290576429
aI56378054
aI150743872
aI52455673
aI57841132
aI16311174
aI10478392
aI48789930
aI193404146
aI227867845
aI214610729
aI1120202010
aI180990597
aI48461021
aI150352115
aI155359090
aI211295734
aI538066649
aI923576730
aI561198314
aI78697425
aI102407528
aI14698489
aI1228312916
aI1112525443
aI823818
aI15180852
aI5763262
aI12394
aI5959342
aI8155052
aI15565721
aI13257922
aI1392281
aI19624673
aI843551
aI6085962
aI15294935
aI50077192
aI17595439
aI19983050
aI38424468
aI85130724
aI103902346
aI681473
aI49853
aI26946244
aI17177403
aI14206869
aI8034682
aI14254352
aI62656840
aI6277702
aI23316825
aI203728509
aI43086676
aI130649891
aI16672510
aI16017475
aI20799683
aI58724547
aI21736571
aI1169531
aI2166341
aI2053051
aI145240604
aI1489691
aI207719464
aI142132298
aI89593573
aI11006932
aI14436317
aI309937733
aI20214495
aI176979194
aI1309321
aI15066958
aI94289451
aI18822617
aI11833202
aI14420872
aI18319419
aI382267114
aI52558480
aI28625478
aI36742977
aI18084775
aI14692117
aI303687748
aI17820399
aI442258314
aI17002185
aI12376942
aI18724977
aI17062849
aI31570489
aI357750891
aI64498695
aI150372271
aI55862608
aI3339171
aI18958396
aI15071207
aI183052682
aI16579836
aI145007561
aI125094578
aI95606530
aI14940354
aI326732414
aI34060703
aI126697624
aI522085136
aI18971067
aI891227208
aI246925752
aI337696325
aI35341530
aI17934639
aI240268656
aI153169998
aI82170753
aI76133
aI14984090
aI18933837
aI113976564
aI373490841
aI14290442
aI618560249
aI19001065
aI6183492
aI9532402
aI688483
aI25053299
aI55394094
aI21217761
aI149689194
aI316659505
aI100731315
aI76617978
aI354883527
aI14157408
aI160503147
aI18812572
aI15012486
aI15754281
aI17469289
aI1652541
aI2097571
aI759251
aI51241574
aI50393960
aI5392522
aI6017542
aI245773814
aI322002293
aI100264522
aI51586150
aI177320337
aI104160265
aI1270714262
aI161927132
aI94379068
aI124510155
aI541064467
aI176216408
aI142387742
aI336168301
aI17503180
aI340486310
aI404247722
aI1384596800
aI614812451
aI24773177
aI11968942
aI889837976
aI1414248607
aI5542712
aI85185481
aI122133875
aI316543289
aI199698405
aI7689742
aI58502569
aI858007165
aI382426595
aI14606202
aI451688659
aI32423136
aI576457087
aI125547081
aI391214052
aI108968018
aI66521679
aI277329652
aI240465217
aI133722469
aI230830103
aI169316477
aI150273104
aI14947001
aI754973
aI13320562
aI102770554
aI120222955
aI292574833
aI479168313
aI771645044
aI235708179
aI142131656
aI162171015
aI481778007
aI582810430
aI15973392
aI36529871
aI556481315
aI211569922
aI3460751
aI16295662
aI739455631
aI25352511
aI281604717
aI2729061
aI77338274
aI214700141
aI17931624
aI14231827
aI19888718
aI36440734
aI151996404
aI182644738
aI2003581
aI606776750
aI582286332
aI824157
aI11616772
aI5911972
aI2234881
aI17369951
aI3943871
aI121788201
aI14328066
aI236026761
aI12245632
aI16291865
aI89785537
aI421068406
aI391697613
aI7773872
aI431629744
aI30181338
aI138777321
aI213722368
aI309933254
aI17018765
aI96637311
aI151159392
aI64643056
aI135006085
aI2284071
aI1719941
aI611986351
aI62255061
aI153636240
aI322282468
aI3968
aI84351228
aI201529857
aI114845248
aI17028456
aI194978116
aI474484078
aI356089575
aI174855172
aI543548441
aI335901264
aI31133330
aI24900072
aI190037399
aI307897148
aI305764459
aI8565932
aI222162329
aI849468804
aI7594662
aI9299642
aI50065150
aI146130664
aI879521
aI80714215
aI154276870
aI325883402
aI182831320
aI123865750
aI140272418
aI16709589
aI242969570
aI152325528
aI8510612
aI144712423
aI77207659
aI253176236
aI50126679
aI46904029
aI7306822
aI7300702
aI174869364
aI7918722
aI9053502
aI127607002
aI14428289
aI397570506
aI199463977
aI402966089
aI8453452
aI447082103
aI146517753
aI57686497
aI239200202
aI265945808
aI144801356
aI282654132
aI157044130
aI23965285
aI8105922
aI14275129
aI87818409
aI10470
aI80396134
aI444106180
aI193853487
aI131894555
aI16063378
aI389574199
aI42346346
aI169321761
aI935797356
aI227435860
aI551970102
aI20
aI160635194
aI395430113
aI657863
aI794329
aI142785651
aI140630074
aI27983558
aI117251043
aI225445834
aI168490358
aI255524045
aI131390753
aI85851159
aI844183753
aI631374320
aI158155548
aI54086957
aI818000406
aI208187704
aI296409480
aI502053817
aI393591423
aI573918122
aI445745936
aI90959872
aI83047883
aI377045114
aI174813874
aI6385432
aI17511846
aI18944456
aI30509098
aI6763252
aI821841475
aI228506774
aI42923085
aI360870858
aI50354243
aI792617778
aI357607540
aI80069355
aI172925234
aI7865282
aI17337093
aI87012080
aI70281846
aI5273561
aI15967248
aI8119452
aI270527418
aI317463387
aI16692038
aI356158929
aI55236002
aI71505643
aI60385618
aI532257523
aI270949300
aI16558456
aI181330971
aI206780149
aI146141995
aI258200208
aI276981962
aI22142948
aI571202103
aI24271681
aI215039059
aI532546965
aI40315262
aI457912422
aI137874572
aI104374311
aI7296182
aI373429032
aI155945710
aI598683485
aI153507094
aI27851092
aI150016842
aI14301286
aI169962449
aI10499022
aI816653
aI209811713
aI19826509
aI28492149
aI74321425
aI4641021
aI33729463
aI23751864
aI113963
aI37917164
aI11388132
aI24816848
aI316583387
aI57411021
aI18834122
aI17636894
aI35515415
aI17291379
aI90167162
aI14396748
aI364528766
aI295120448
aI14606079
aI45910599
aI37314900
aI34612063
aI33652360
aI39467577
aI39988777
aI20806409
aI19530476
aI15785618
aI17624188
aI5254271
aI6859362
aI7601052
aI14384138
aI7631302
aI10257922
aI8709
aI350194254
aI175197834
aI517682344
aI85874598
aI150897099
aI208054009
aI76850095
aI9984322
aI187495266
aI72906953
aI138522765
aI229709694
aI258840924
aI2384071
aI63155327
aI37857874
aI136349459
aI3935601
aI5165901
aI155598890
aI15339615
aI104965837
aI27029440
aI164791463
aI280095492
aI10722902
aI79125332
aI460141468
aI18503318
aI17814160
aI5695632
aI29399931
aI538357432
aI9745092
aI233631354
aI6267962
aI17868715
aI130197523
aI31290887
aI5388852
aI486817245
aI4064311
aI79543
aI450753390
aI148062771
aI277524291
aI71815986
aI268494854
aI150413735
aI451586190
aI150319476
aI69587059
aI17333183
aI196787564
aI124190373
aI167079658
aI148752676
aI163209455
aI128363204
aI126206387
aI206106207
aI21598660
aI22642788
aI17071048
aI153797449
aI176414763
aI102751457
aI20566352
aI13452982
aI126050463
aI66700936
aI9504282
aI15352968
aI211665726
aI50763673
aI34636193
aI1477811
aI16391836
aI6012632
aI731573
aI190340069
aI9685592
aI176413987
aI6900782
aI7178612
aI5420692
aI4065191
aI3550961
aI62524888
aI196594925
aI196801636
aI143598748
aI80947885
aI8161082
aI185783907
aI210512236
aI813286
aI7881912
aI326369443
aI15345797
aI14048809
aI56372726
aI265509007
aI240354622
aI6792632
aI54877798
aI31237389
aI155669017
aI123916637
aI114510872
aI19348870
aI95499002
aI8292932
aI17025362
aI1021961
aI3040871
aI9272192
aI8593912
aI20536157
aI14238967
aI6184392
aI14135237
aI51755600
aI16436825
aI6141832
aI16276054
aI769964
aI5988062
aI37529477
aI15164565
aI5883632
aI10876852
aI85928734
aI17675028
aI46679713
aI15822191
aI80681990
aI8186382
aI2722181
aI9588742
aI13429742
aI9078862
aI4628161
aI16508361
aI8366982
aI11069462
aI44043305
aI54839568
aI7818362
aI2334361
aI8511232
aI81127632
aI59908109
aI28553977
aI7825922
aI7805262
aI165408527
aI83488590
aI67628740
aI207516248
aI21598103
aI15187065
aI156740257
aI279603626
aI13204132
aI271622714
aI21585173
aI69326853
aI77024548
aI46393895
aI196955819
aI151637433
aI30715000
aI22623647
aI14748732
aI16843229
aI18185124
aI14628750
aI114969013
aI16353483
aI9057262
aI7703352
aI148724659
aI80751471
aI36139587
aI93913202
aI32686924
aI83617456
aI161646111
aI88306906
aI180353566
aI53459457
aI14242638
aI16311493
aI89852766
aI7664892
aI42262238
aI50765618
aI83119297
aI37030571
aI191992724
aI197348944
aI8781182
aI207517593
aI131472807
aI300465859
aI19516523
aI25992212
aI256721337
aI111299240
aI204970350
aI180594780
aI288973691
aI193942163
aI137891681
aI194153632
aI247797874
aI128103749
aI126059328
aI178902087
aI133128555
aI256162009
aI172113880
aI124789557
aI82428103
aI285927952
aI61185260
aI218894949
aI66943816
aI140429432
aI175445382
aI175535611
aI175462303
aI133505726
aI177336942
aI177562588
aI164897379
aI36727199
aI182579159
aI52903797
aI188301338
aI177342424
aI149171521
aI33952069
aI195886059
aI163225698
aI11120292
aI194593128
aI12
aI208691537
aI8230392
aI87503775
aI113388734
aI18895752
aI176562920
aI8383592
aI10118802
aI86884933
aI211371880
aI44394145
aI142770303
aI253316621
aI67511316
aI260356656
aI139195202
aI203654740
aI267776995
aI277107117
aI270026399
aI14436030
aI93938242
aI19781200
aI56736400
aI290722708
aI14277284
aI151838421
aI69365332
aI142684449
aI305917079
aI182809592
aI211829842
aI27613408
aI69416519
aI40515944
aI147969023
aI19293046
aI51714340
aI8180702
aI7697762
aI203623958
aI122218865
aI428333
aI18902661
aI260975579
aI32077568
aI807095
aI173263956
aI256724578
aI145048263
aI40071126
aI60646589
aI224030848
aI36599164
aI33927228
aI140253873
aI228935794
aI9321342
aI86744570
aI220826418
aI57152295
aI15076389
aI278977246
aI6688322
aI37759047
aI13656342
aI85426644
aI142126563
aI21416609
aI165734393
aI141705220
aI125473145
aI151133674
aI2425151
aI49122393
aI41825249
aI284499672
aI192384603
aI62363015
aI134211535
aI128721058
aI57399758
aI17419836
aI83928620
aI68727490
aI10324392
aI145894769
aI15917607
aI150803650
aI91142652
aI73996078
aI191730668
aI6477392
aI50148861
aI268258196
aI131916699
aI10228272
aI10955762
aI1265071
aI7409742
aI40628693
aI50778562
aI8547722
aI7598672
aI58613
aI1668131
aI44564886
aI42715368
aI21982720
aI236571368
aI111063583
aI130874360
aI8089762
aI41147203
aI27697807
aI82403377
aI38456951
aI35956339
aI18358699
aI7905122
aI7994742
aI15087011
aI99352583
aI15865878
aI20169131
aI115768776
aI6859342
aI30949340
aI8083642
aI8083992
aI24534693
aI148984299
aI148141003
aI191872473
aI152417666
aI48491866
aI19301292
aI118732136
aI16145524
aI185906075
aI82964066
aI39248035
aI155642905
aI16076032
aI14834340
aI119998164
aI148561113
aI15452231
aI9900962
aI7768192
aI221552942
aI16589206
aI7348152
aI161137181
aI26633186
aI18786579
aI121553375
aI198680263
aI14073364
aI151142897
aI157690077
aI50103873
aI16311446
aI41811580
aI66763155
aI183355535
aI150768415
aI202159514
aI7996082
aI26381906
aI159844528
aI19534873
aI51291522
aI151198642
aI7254262
aI49771105
aI87920683
aI116812135
aI92993433
aI14419910
aI202325694
aI199476761
aI33989170
aI16311487
aI196291109
aI140856303
aI144805398
aI51871007
aI11435642
aI155919261
aI43603511
aI9206682
aI150686809
aI50748686
aI164069675
aI138814032
aI151055124
aI151139817
aI138201581
aI148193563
aI137565914
aI124779370
aI44953738
aI44237261
aI12725692
aI17901986
aI16311394
aI151141993
aI7692262
aI16382477
aI14636665
aI17622198
aI54206899
aI16311528
aI38299186
aI127967821
aI52063729
aI16311488
aI67053468
aI16892181
aI82951459
aI7809002
aI24873432
aI50518937
aI52199287
aI51915647
aI146591803
aI131263336
aI150496683
aI150371630
aI151058509
aI151558962
aI55067036
aI61752036
aI25610143
aI85861402
aI16784012
aI141317156
aI130673615
aI50449406
aI16002828
aI40478840
aI48684543
aI50750455
aI50752773
aI7689702
aI8403612
aI21356583
aI2994961
aI8211972
aI6661052
aI7238782
aI817969
aI10630222
aI15885477
aI13456472
aI7141082
aI26027997
aI17078536
aI17806195
aI44698651
aI19780104
aI29875645
aI7863592
aI115739179
aI74652554
aI9534522
aI6120472
aI11231412
aI12624052
aI100336023
aI25927019
aI821692
aI18679965
aI6501692
aI41957054
aI6721492
aI31457455
aI61620321
aI60358161
aI21928784
aI18978280
aI21046440
aI40974469
aI59857143
aI19340061
aI14707350
aI7805322
aI6793362
aI972651
aI2330551
aI8545122
aI14407320
aI760654
aI6670742
aI8075962
aI7650242
aI3657871
aI2655791
aI4245701
aI783214
a.