c__builtin__
set
p0
((lp1
I92931072
aI32077568
aI189132054
aI74176515
aI123384324
aI195534344
aI104160265
aI231497140
aI38004521
aI127084559
aI176555536
aI83984913
aI228782610
aI63352851
aI82666004
aI186908694
aI162931223
aI14117067
aI125385248
aI208531734
aI40697892
aI234489872
aI105560323
aI177334313
aI228405290
aI149243436
aI125699630
aI123120175
aI214985776
aI22569521
aI152734770
aI234995185
aI18516021
aI142362678
aI163523129
aI171661323
aI141648443
aI90182205
aI1226440766
aI175421024
aI129302594
aI167182403
aI152896580
aI154127035
aI127997511
aI52445256
aI196594925
aI127337034
aI69371831
aI16825420
aI15032418
aI899755086
aI137757263
aI426902100
aI531373145
aI153525339
aI152837212
aI14253149
aI149625950
aI112249566
aI18679393
aI220161122
aI154426555
aI51586150
aI28808295
aI305359464
aI15149452
aI203298414
aI170779247
aI14699632
aI201091401
aI129967731
aI140593781
aI34675322
aI134276799
aI32987772
aI52227709
aI86870143
aI79233153
aI95556738
aI94710915
aI172934422
aI189685100
aI177576586
aI138372119
aI538490509
aI159844494
aI172504993
aI93421202
aI16625303
aI121980572
aI14919957
aI101804191
aI157847200
aI163316385
aI218234021
aI6993062
aI153822376
aI71594665
aI74027719
aI124789557
aI220220275
aI8254132
aI221987000
aI74806459
aI180990652
aI15632842
aI11100862
aI36009663
aI214920896
aI180178929
aI17379012
aI16220357
aI247049926
aI1921253575
aI7782202
aI283853005
aI192216783
aI176147152
aI150897099
aI61945922
aI183669027
aI66912206
aI35175639
aI183107801
aI87535738
aI2337800414
aI581535456
aI166311137
aI101687363
aI22727035
aI240491238
aI53172446
aI240766698
aI58820331
aI7768812
aI74767085
aI7863592
aI15912178
aI122713299
aI71154423
aI83199738
aI38981312
aI19192574
aI29107455
aI147057832
aI180947840
aI235728643
aI102996722
aI1542125526
aI176413987
aI160913674
aI181257346
aI85328631
aI150425042
aI262910737
aI154325123
aI235397909
aI2682780438
aI18700055
aI83009817
aI2486468378
aI170502427
aI153452321
aI115078434
aI129802019
aI102042692
aI8913702
aI20558119
aI145097000
aI187984681
aI103913351
aI26107181
aI243502383
aI423922480
aI362614323
aI7791412
aI61678389
aI186587449
aI136617274
aI9335612
aI186915645
aI144029502
aI82142517
aI557318464
aI95039299
aI114751245
aI232353093
aI221105478
aI159929159
aI53509961
aI27754314
aI148134734
aI150067989
aI102758229
aI1135898966
aI221370169
aI164048216
aI18871130
aI125121423
aI157748573
aI186737502
aI153158495
aI64096097
aI50703202
aI132738107
aI141961062
aI50876777
aI1483580647
aI86861164
aI16166254
aI18364720
aI172087152
aI2779485042
aI161878419
aI106513781
aI240276855
aI260811642
aI314049070
aI54963068
aI172818816
aI123639104
aI8541572
aI96910215
aI197919383
aI109584268
aI37261890
aI115683727
aI208564624
aI8143762
aI161792915
aI64537492
aI70837142
aI58399128
aI98355609
aI147261851
aI127296351
aI187253150
aI138228641
aI186608546
aI226290587
aI80896932
aI127003047
aI87679132
aI77337671
aI93114285
aI215679010
aI127585204
aI272263605
aI229184438
aI21188023
aI1487994810
aI93047797
aI166359492
aI218350533
aI151606727
aI90177994
aI163431671
aI182527948
aI78014925
aI38578638
aI28605392
aI156535800
aI165393362
aI291396563
aI59958230
aI200096761
aI262736856
aI47634906
aI161990619
aI26376670
aI71912417
aI219110272
aI186554548
aI233123812
aI161112551
aI149732860
aI143481285
aI137825261
aI136099822
aI59973104
aI145427441
aI26702323
aI310658549
aI64833528
aI231054329
aI146656767
aI39687164
aI87962109
aI91143509
atp2
Rp3
.