c__builtin__
set
p0
((lp1
I172818816
aI79233153
aI186737502
aI2682780438
aI16625303
aI37261890
aI115683727
aI83984913
aI8143762
aI161792915
aI82666004
aI235397909
aI186908694
aI197919383
aI83009817
aI2486468378
aI187253150
aI186915645
aI163316385
aI40697892
aI145097000
aI187984681
aI228405290
aI151606727
aI314049070
aI423922480
aI22569521
aI7791412
aI26376670
aI70837142
aI59958230
aI141648443
aI127337034
aI1226440766
aI61678389
aI557318464
aI129302594
aI167182403
aI218350533
aI1921253575
aI90177994
aI283853005
aI137757263
aI426902100
aI1135898966
aI1542125526
aI183107801
aI47634906
aI80896932
aI2337800414
aI18679393
aI101687363
aI161112551
aI32987772
aI16166254
aI170779247
aI59973104
aI15032418
aI310658549
aI85328631
aI64537492
aI83199738
aI39687164
atp2
Rp3
.