c__builtin__
set
p0
((lp1
I74176515
aI231635286
aI171661323
aI127084559
aI234489872
aI158087185
aI951576594
aI63352851
aI200980502
aI74917911
aI152896580
aI215679010
aI40697892
aI177334313
aI228405290
aI18516021
aI9177142
aI1226440766
aI61945922
aI101687363
aI52445256
aI182081622
aI172157017
aI68753423
aI161300577
aI15032418
aI81270801
aI193120956
aI259459090
aI844652660
aI11100862
aI87535738
aI36009663
aI215955582
aI86870143
aI79233153
aI154325123
aI186908694
aI1624938631
aI86861164
aI138372119
aI72073357
aI159844494
aI145410196
aI87679132
aI101804191
aI43173499
aI601839780
aI186554548
aI221987000
aI16220357
aI1921253575
aI1000112330
aI14117067
aI283853005
aI183107801
aI776933594
aI16668891
aI53172446
aI416373456
aI60291299
aI337682668
aI157788403
aI459628789
aI182610168
aI38981312
aI126773706
aI105560323
aI160913674
aI14919957
aI208531734
aI83009817
aI170502427
aI17133856
aI183669027
aI145762598
aI20558119
aI145097000
aI18364720
aI157978930
aI107273580
aI218399032
aI186587449
aI557318464
aI142362678
aI201091401
aI18858323
aI14059860
aI61678389
aI1135898966
aI180564316
aI215003492
aI8541572
aI50876777
aI235217266
aI22727035
aI172818816
aI369791364
aI315117958
aI15149452
aI129302594
aI115683727
aI208564624
aI161878419
aI153926039
aI58399128
aI98355609
aI147261851
aI187253150
aI161403302
aI127003047
aI216548423
aI119837108
aI272263605
aI166359492
aI143481285
aI90177994
aI85328631
aI78014925
aI38578638
aI215095768
aI47634906
aI26376670
aI161112551
aI172104168
aI2859182576
aI2411805170
aI26702323
aI87962109
aI64401152
aI190755331
aI123384324
aI339700239
aI83984913
aI228782610
aI82666004
aI141742614
aI162931223
aI874334744
aI125385248
aI148574299
aI259973675
aI314049070
aI123120175
aI22569521
aI173480500
aI163523129
aI141648443
aI90182205
aI37261890
aI127337034
aI169251404
aI114590285
aI137757263
aI426902100
aI77261404
aI156129888
aI36439142
aI305359464
aI170779247
aI140593781
aI51518073
aI34675322
aI32987772
aI150067989
aI355797633
aI177576586
aI270736016
aI780671636
aI197919383
aI500134554
aI163316385
aI71594665
aI8254132
aI185848501
aI248263350
aI154127035
aI180990652
aI15632842
aI138199742
aI150897099
aI74027719
aI332313291
aI176147152
aI18901714
aI144206550
aI186171514
aI112249566
aI24015584
aI8913702
aI240491238
aI7768812
aI74767085
aI102996722
aI1262734068
aI71154423
aI204659449
aI19192574
aI552852230
aI15981322
aI95556738
aI262910737
aI1332472963
aI384862997
aI2682780438
aI827263770
aI82946843
aI290834565
aI341932838
aI187984681
aI247307051
aI14934831
aI423922480
aI7791412
aI91661109
aI292622359
aI2560637753
aI9335612
aI186915645
aI124789557
aI159929159
aI148134734
aI174703443
aI173435022
aI126589784
aI18871130
aI186737502
aI153158495
aI50703202
aI182215533
aI146633583
aI2779485042
aI220220275
aI55853941
aI18123639
aI172204921
aI260811642
aI54963068
aI180947840
aI151286934
aI96910215
aI125121423
aI8143762
aI161792915
aI64537492
aI156894101
aI70837142
aI228217753
aI295295898
aI226290587
aI138228641
aI186608546
aI80896932
aI127585204
aI229184438
aI215045050
aI151870398
aI2556282357
aI188488642
aI218350533
aI49214407
aI28605392
aI165393362
aI291396563
aI59958230
aI262736856
aI235397909
aI233579486
aI803808
aI71912417
aI137825261
aI153822376
aI160942931
aI41020404
aI93047797
aI156535800
aI200096761
aI39687164
aI92931072
aI168311813
aI174296070
aI104160265
aI238267407
aI130896728
aI133040643
aI187280407
aI169485345
aI214985776
aI299856945
aI152734770
aI1187673140
aI61598773
aI164469816
aI27681972
aI132738107
aI14048321
aI102042692
aI77337671
aI349889608
aI16825420
aI899755086
aI138568786
aI501967955
aI531373145
aI153525339
aI152837212
aI14253149
aI149625950
aI220161122
aI154426555
aI51586150
aI28808295
aI601220202
aI38299495
aI14699632
aI181257346
aI94710915
aI1415087251
aI942224534
aI181263519
aI218234021
aI6993062
aI147057832
aI131970228
aI243369143
aI296391866
aI74806459
aI115653821
aI13089982
aI27345099
aI331764944
aI152792274
aI122713299
aI35175639
aI79277272
aI166311137
aI1483580647
aI1086346472
aI281433323
aI208782572
aI196594925
aI15912178
aI323325171
aI163431671
aI29107455
aI219110272
aI315294992
aI265024728
aI189132054
aI115078434
aI176413987
aI7863592
aI128483207
aI26107181
aI243502383
aI35407154
aI2337800414
aI136617274
aI57185595
aI1140290876
aI41985342
aI123639104
aI2827795779
aI232353093
aI221105478
aI241122635
aI877380943
aI91143509
aI164048216
aI164936591
aI118844764
aI157748573
aI816584035
aI346320229
aI189685100
aI16166254
aI135185778
aI146199924
aI106513781
aI240276855
aI149284849
aI158702980
aI164300168
aI218297750
aI84976539
aI187024809
aI137379399
aI181284268
aI226354419
aI231497140
aI21188023
aI63348060
aI151606727
aI131407310
aI150425042
aI163214816
aI124530146
aI101113321
aI259427823
aI59973104
aI234995185
aI310658549
aI149732860
aI146656767
aI163102210
aI195534344
aI18304521
aI136414734
aI176555536
aI135843345
aI197484052
aI270646069
aI141275550
aI309229090
aI149243436
aI125699630
aI362614323
aI2924436781
aI203215796
aI175674940
aI517996098
aI127997511
aI427582900
aI188926331
aI175421024
aI18679393
aI210212460
aI203298414
aI129967731
aI301690488
aI258875003
aI14749308
aI52227709
aI172934422
aI87043724
aI538490509
aI93421202
aI16625303
aI112580250
aI121980572
aI157847200
aI246892198
aI1709670061
aI1962882750
aI134276799
aI214920896
aI17379012
aI135771845
aI247049926
aI208565961
aI192216783
aI201486036
aI581535456
aI127296351
aI102197884
aI240766698
aI58820331
aI132644136
aI83199738
aI271685373
aI32077568
aI235728643
aI2375522052
aI37385991
aI114751245
aI148921645
aI18700055
aI2486468378
aI249157405
aI156008069
aI153452321
aI192192290
aI129802019
aI38004521
aI21098286
aI170471223
aI221370169
aI7782202
aI180262592
aI144029502
aI82142517
aI95039299
aI53509961
aI27754314
aI590720846
aI257421624
aI102758229
aI336205539
aI76810073
aI210591034
aI327669598
aI64096097
aI141961062
aI162572135
aI15386474
aI172087152
aI48394103
aI130359160
aI252837762
aI103913351
aI180815752
aI109584268
aI165439470
aI14952346
aI172504993
aI145427441
aI119420572
aI93114285
aI265607092
aI69371831
aI1487994810
aI1472797345
aI360193992
aI182527948
aI66912206
aI14317519
aI200572881
aI1542125526
aI231054329
aI161990619
aI167182403
aI233123812
aI136099822
aI180178929
aI64833528
aI381063167
aI109023228
aI69898238
aI867148987
atp2
Rp3
.