c__builtin__
set
p0
((lp1
I557318464
aI163316385
aI129302594
aI167182403
aI1921253575
aI145097000
aI79233153
aI90177994
aI151606727
aI85328631
aI314049070
aI137757263
aI426902100
aI2337800414
aI186908694
aI197919383
aI183107801
aI1226440766
atp2
Rp3
.